composite_setup_complete:
	.fnstart
	@ args = 0, pretend = 0, frame = 0
	@ frame_needed = 0, uses_anonymous_args = 0
	@ link register save eliminated.
	bx	lr
	.fnend
	.size	composite_setup_complete, .-composite_setup_complete
	.align	2
	.syntax unified
	.arm
	.fpu softvfp
	.type	diag_write_complete, %function
diag_write_complete:
	.fnstart
	@ args = 0, pretend = 0, frame = 0
	@ frame_needed = 0, uses_anonymous_args = 0
	strd	r4, [sp, #-24]!
	.save {r4, r5, r6, r7, r8, lr}
	mov	r4, r1
	strd	r6, [sp, #8]
	str	r8, [sp, #16]
	str	lr, [sp, #20]
	ldr	r5, [r0]
	ldr	r6, [r1, #32]
	ldr	r2, [r5, #136]
	sub	ip, r2, #1
	str	ip, [r5, #136]
	ldr	ip, [r1, #44]
	cmp	ip, #0
	bne	.L4
	ldrh	r0, [r0, #20]
	ldr	ip, [r1, #4]
	cmp	ip, r0
	bcc	.L4
	udiv	lr, ip, r0
	mls	r0, r0, lr, ip
	cmp	r0, #0
	bne	.L4
	str	r2, [r5, #136]
	ldr	ip, [r1, #48]
	mov	r2, #32
	str	r0, [r1, #4]
	str	ip, [r6, #8]
	ldr	r3, [r1, #44]
	str	r3, [r6, #12]
	ldr	r0, [r5, #88]
	ldrd	r4, [sp]
	ldrd	r6, [sp, #8]
	ldr	r8, [sp, #16]
	ldr	r3, [r0, #8]
	ldr	lr, [sp, #20]
	add	sp, sp, #24
	ldr	r3, [r3, #16]
	bx	r3
.L4:
	add	r7, r5, #108
	mov	r0, r7
	bl	_raw_spin_lock_irqsave
	ldr	r2, [r5, #104]
	add	ip, r4, #36
	add	r3, r5, #100
	mov	r1, r0
	str	ip, [r5, #104]
	str	r3, [r4, #36]
	str	r2, [r4, #40]
	str	ip, [r2]
	ldr	r3, [r4, #4]
	cmp	r3, #0
	bne	.L17
.L5:
	mov	r0, r7
	bl	_raw_spin_unlock_irqrestore
	ldr	r3, [r5, #124]
	cmp	r3, #0
	beq	.L3
	ldr	lr, [r3, #12]
	cmp	lr, #0
	beq	.L3
	mov	r2, r6
	ldr	r0, [r3, #16]
	mov	r1, #2
	ldrd	r4, [sp]
	mov	r3, lr
	ldrd	r6, [sp, #8]
	ldr	r8, [sp, #16]
	ldr	lr, [sp, #20]
	add	sp, sp, #24
	bx	r3	@ indirect register sibling call
.L17:
	ldr	r3, [r4, #48]
	str	r3, [r6, #8]
	ldr	r3, [r4, #44]
	str	r3, [r6, #12]
	b	.L5
.L3:
	ldrd	r4, [sp]
	ldrd	r6, [sp, #8]
	ldr	r8, [sp, #16]
	add	sp, sp, #20
	ldr	pc, [sp], #4
	.fnend
	.size	diag_write_complete, .-diag_write_complete
	.align	2
	.syntax unified
	.arm
	.fpu softvfp
	.type	diag_read_complete, %function
diag_read_complete:
	.fnstart
	@ args = 0, pretend = 0, frame = 0
	@ frame_needed = 0, uses_anonymous_args = 0
	strd	r4, [sp, #-24]!
	.save {r4, r5, r6, r7, r8, lr}
	mov	r5, r1
	strd	r6, [sp, #8]
	str	r8, [sp, #16]
	str	lr, [sp, #20]
	ldr	r6, [r1, #32]
	ldr	r3, [r1, #48]
	ldr	r4, [r0]
	str	r3, [r6, #8]
	ldr	r3, [r1, #44]
	add	r7, r4, #108
	mov	r0, r7
	str	r3, [r6, #12]
	bl	_raw_spin_lock_irqsave
	ldr	r3, [r4, #96]
	add	r2, r5, #36
	add	ip, r4, #92
	mov	r1, r0
	mov	r0, r7
	str	r2, [r4, #96]
	str	ip, [r5, #36]
	str	r3, [r5, #40]
	str	r2, [r3]
	bl	_raw_spin_unlock_irqrestore
	ldr	r1, [r4, #124]
	ldr	r3, [r4, #132]
	cmp	r1, #0
	add	r3, r3, #1
	str	r3, [r4, #132]
	beq	.L18
	ldr	r3, [r1, #12]
	cmp	r3, #0
	beq	.L18
	mov	r2, r6
	ldr	r0, [r1, #16]
	mov	r1, #3
	ldrd	r4, [sp]
	ldrd	r6, [sp, #8]
	ldr	r8, [sp, #16]
	ldr	lr, [sp, #20]
	add	sp, sp, #24
	bx	r3	@ indirect register sibling call
.L18:
	ldrd	r4, [sp]
	ldrd	r6, [sp, #8]
	ldr	r8, [sp, #16]
	add	sp, sp, #20
	ldr	pc, [sp], #4
	.fnend
	.size	diag_read_complete, .-diag_read_complete
	.align	2
	.syntax unified
	.arm
	.fpu softvfp
	.type	diag_function_disable, %function
diag_function_disable:
	.fnstart
	@ args = 0, pretend = 0, frame = 0
	@ frame_needed = 0, uses_anonymous_args = 0
	strd	r4, [sp, #-16]!
	.save {r4, r5, r6, lr}
	add	r5, r0, #108
	mov	r4, r0
	str	r6, [sp, #8]
	mov	r0, r5
	mov	r6, #0
	str	lr, [sp, #12]
	bl	_raw_spin_lock_irqsave
	mov	r1, r0
	str	r6, [r4, #112]
	mov	r0, r5
	bl	_raw_spin_unlock_irqrestore
	ldr	r3, [r4, #124]
	cmp	r3, r6
	beq	.L28
	ldr	r5, [r3, #12]
	cmp	r5, r6
	beq	.L28
	mov	r2, r6
	mov	r1, #1
	ldr	r0, [r3, #16]
	blx	r5
.L28:
	ldr	r0, [r4, #88]
	mov	r5, #0
	ldr	r3, [r0, #8]
	ldr	r3, [r3, #4]
	blx	r3
	ldr	r3, [r4, #88]
	str	r5, [r3]
	ldr	r0, [r4, #84]
	ldr	r3, [r0, #8]
	ldr	r3, [r3, #4]
	blx	r3
	ldr	r3, [r4, #84]
	str	r5, [r3]
	ldr	r3, [r4, #124]
	cmp	r3, r5
	strne	r5, [r3, #20]
	ldrd	r4, [sp]
	ldr	r6, [sp, #8]
	add	sp, sp, #12
	ldr	pc, [sp], #4
	.fnend
	.size	diag_function_disable, .-diag_function_disable
	.align	2
	.syntax unified
	.arm
	.fpu softvfp
	.type	debug_reset_stats, %function
debug_reset_stats:
	.fnstart
	@ args = 0, pretend = 0, frame = 0
	@ frame_needed = 0, uses_anonymous_args = 0
	.save {lr}
	str	lr, [sp, #-4]!
	movw	lr, #:lower16:.LANCHOR0
	movt	lr, #:upper16:.LANCHOR0
	ldr	r3, [lr]
	cmp	lr, r3
	beq	.L42
	sub	r3, r3, #4
	mov	ip, #0
.L41:
	ldr	r1, [r3, #20]
	cmp	r1, #0
	beq	.L43
	str	ip, [r1, #128]
	str	ip, [r1, #132]
	str	ip, [r1, #136]
	ldr	r3, [r3, #4]
	cmp	lr, r3
	sub	r3, r3, #4
	bne	.L41
.L42:
	mov	r0, r2
	ldr	pc, [sp], #4
.L43:
	ldr	r3, [r3, #4]
	cmp	lr, r3
	sub	r3, r3, #4
	bne	.L41
	mov	r0, r2
	ldr	pc, [sp], #4
	.fnend
	.size	debug_reset_stats, .-debug_reset_stats
	.align	2
	.syntax unified
	.arm
	.fpu softvfp
	.type	debug_open, %function
debug_open:
	.fnstart
	@ args = 0, pretend = 0, frame = 0
	@ frame_needed = 0, uses_anonymous_args = 0
	@ link register save eliminated.
	mov	r0, #0
	bx	lr
	.fnend
	.size	debug_open, .-debug_open
	.align	2
	.syntax unified
	.arm
	.fpu softvfp
	.type	qdss_ctrl_write_complete, %function
qdss_ctrl_write_complete:
	.fnstart
	@ args = 0, pretend = 0, frame = 0
	@ frame_needed = 0, uses_anonymous_args = 0
	strd	r4, [sp, #-24]!
	.save {r4, r5, r6, r7, r8, lr}
	mov	r4, r1
	strd	r6, [sp, #8]
	str	r8, [sp, #16]
	str	lr, [sp, #20]
	ldr	r5, [r0]
	ldr	r2, [r1, #44]
	ldr	r6, [r1, #32]
	cmp	r2, #0
	bne	.L49
	ldrh	r2, [r0, #20]
	ldr	r0, [r1, #4]
	cmp	r0, r2
	bcc	.L49
	udiv	ip, r0, r2
	mls	r2, r2, ip, r0
	cmp	r2, #0
	bne	.L49
	ldr	r0, [r1, #48]
	str	r2, [r1, #4]
	mov	r2, #32
	str	r0, [r6, #8]
	ldr	r3, [r1, #44]
	str	r3, [r6, #12]
	ldr	r0, [r5, #104]
	ldrd	r4, [sp]
	ldrd	r6, [sp, #8]
	ldr	r8, [sp, #16]
	ldr	r3, [r0, #8]
	ldr	lr, [sp, #20]
	add	sp, sp, #24
	ldr	r3, [r3, #16]
	bx	r3
.L49:
	add	r7, r5, #188
	mov	r0, r7
	bl	_raw_spin_lock_irqsave
	ldr	r2, [r5, #152]
	add	ip, r4, #36
	add	r3, r5, #148
	mov	r1, r0
	str	ip, [r5, #152]
	str	r3, [r4, #36]
	str	r2, [r4, #40]
	str	ip, [r2]
	ldr	r3, [r4, #4]
	cmp	r3, #0
	bne	.L56
.L50:
	mov	r0, r7
	bl	_raw_spin_unlock_irqrestore
	ldr	lr, [r5, #124]
	cmp	lr, #0
	beq	.L48
	mov	r2, r6
	mov	ip, lr
	ldr	r0, [r5, #128]
	ldrd	r4, [sp]
	mov	r3, #0
	mov	r1, #4
	ldrd	r6, [sp, #8]
	ldr	r8, [sp, #16]
	ldr	lr, [sp, #20]
	add	sp, sp, #24
	bx	ip	@ indirect register sibling call
.L56:
	ldr	r3, [r4, #48]
	str	r3, [r6, #8]
	ldr	r3, [r4, #44]
	str	r3, [r6, #12]
	b	.L50
.L48:
	ldrd	r4, [sp]
	ldrd	r6, [sp, #8]
	ldr	r8, [sp, #16]
	add	sp, sp, #20
	ldr	pc, [sp], #4
	.fnend
	.size	qdss_ctrl_write_complete, .-qdss_ctrl_write_complete
	.align	2
	.syntax unified
	.arm
	.fpu softvfp
	.type	qdss_ctrl_read_complete, %function
qdss_ctrl_read_complete:
	.fnstart
	@ args = 0, pretend = 0, frame = 0
	@ frame_needed = 0, uses_anonymous_args = 0
	strd	r4, [sp, #-24]!
	.save {r4, r5, r6, r7, r8, lr}
	mov	r4, r1
	strd	r6, [sp, #8]
	str	r8, [sp, #16]
	str	lr, [sp, #20]
	ldr	r6, [r1, #32]
	ldr	r3, [r1, #48]
	ldr	r5, [r0]
	str	r3, [r6, #8]
	ldr	r3, [r1, #44]
	add	r7, r5, #188
	mov	r0, r7
	str	r3, [r6, #12]
	bl	_raw_spin_lock_irqsave
	ldr	r3, [r5, #144]
	add	r2, r4, #36
	add	ip, r5, #140
	mov	r1, r0
	mov	r0, r7
	str	r2, [r5, #144]
	str	ip, [r4, #36]
	str	r3, [r4, #40]
	str	r2, [r3]
	bl	_raw_spin_unlock_irqrestore
	ldr	lr, [r5, #124]
	cmp	lr, #0
	beq	.L57
	mov	r2, r6
	mov	ip, lr
	ldr	r0, [r5, #128]
	ldrd	r4, [sp]
	mov	r3, #0
	mov	r1, #2
	ldrd	r6, [sp, #8]
	ldr	r8, [sp, #16]
	ldr	lr, [sp, #20]
	add	sp, sp, #24
	bx	ip	@ indirect register sibling call
.L57:
	ldrd	r4, [sp]
	ldrd	r6, [sp, #8]
	ldr	r8, [sp, #16]
	add	sp, sp, #20
	ldr	pc, [sp], #4
	.fnend
	.size	qdss_ctrl_read_complete, .-qdss_ctrl_read_complete
	.align	2
	.syntax unified
	.arm
	.fpu softvfp
	.type	rmnet_txcommand_complete, %function
rmnet_txcommand_complete:
	.fnstart
	@ args = 0, pretend = 0, frame = 0
	@ frame_needed = 0, uses_anonymous_args = 0
	strd	r4, [sp, #-16]!
	.save {r4, r5, r6, lr}
	str	r6, [sp, #8]
	str	lr, [sp, #12]
	ldr	r4, [r1, #32]
	add	r5, r4, #164
	mov	r0, r5
	bl	_raw_spin_lock
	ldr	r3, [r4, #440]
	mov	r0, r5
	add	r3, r3, #1
	str	r3, [r4, #440]
	ldrd	r4, [sp]
	ldr	r6, [sp, #8]
	ldr	lr, [sp, #12]
	add	sp, sp, #16
	b	_raw_spin_unlock
	.fnend
	.size	rmnet_txcommand_complete, .-rmnet_txcommand_complete
	.align	2
	.syntax unified
	.arm
	.fpu softvfp
	.type	rmnet_smd_debug_reset_stats, %function
rmnet_smd_debug_reset_stats:
	.fnstart
	@ args = 0, pretend = 0, frame = 0
	@ frame_needed = 0, uses_anonymous_args = 0
	strd	r4, [sp, #-16]!
	.save {r4, r5, r6, lr}
	str	r6, [sp, #8]
	mov	r6, r2
	str	lr, [sp, #12]
	ldr	r4, [r0, #124]
	add	r5, r4, #164
	mov	r0, r5
	bl	_raw_spin_lock_irqsave
	mov	r3, #0
	mov	r1, r0
	mov	r0, r5
	str	r3, [r4, #424]
	str	r3, [r4, #428]
	str	r3, [r4, #432]
	str	r3, [r4, #436]
	str	r3, [r4, #440]
	str	r3, [r4, #444]
	str	r3, [r4, #448]
	str	r3, [r4, #452]
	bl	_raw_spin_unlock_irqrestore
	ldrd	r4, [sp]
	mov	r0, r6
	ldr	r6, [sp, #8]
	add	sp, sp, #12
	ldr	pc, [sp], #4
	.fnend
	.size	rmnet_smd_debug_reset_stats, .-rmnet_smd_debug_reset_stats
	.align	2
	.syntax unified
	.arm
	.fpu softvfp
	.type	rmnet_smd_debug_open, %function
rmnet_smd_debug_open:
	.fnstart
	@ args = 0, pretend = 0, frame = 0
	@ frame_needed = 0, uses_anonymous_args = 0
	@ link register save eliminated.
	ldr	r3, [r0, #340]
	mov	r0, #0
	str	r3, [r1, #124]
	bx	lr
	.fnend
	.size	rmnet_smd_debug_open, .-rmnet_smd_debug_open
	.align	2
	.syntax unified
	.arm
	.fpu softvfp
	.type	rmnet_sdio_set_modem_cbits_w, %function
rmnet_sdio_set_modem_cbits_w:
	.fnstart
	@ args = 0, pretend = 0, frame = 0
	@ frame_needed = 0, uses_anonymous_args = 0
	@ link register save eliminated.
	ldr	r3, [r0, #-12]
	bx	lr
	.fnend
	.size	rmnet_sdio_set_modem_cbits_w, .-rmnet_sdio_set_modem_cbits_w
	.align	2
	.syntax unified
	.arm
	.fpu softvfp
	.type	rmnet_sdio_disconnect_work, %function
rmnet_sdio_disconnect_work:
	.fnstart
	@ args = 0, pretend = 0, frame = 0
	@ frame_needed = 0, uses_anonymous_args = 0
	@ link register save eliminated.
	bx	lr
	.fnend
	.size	rmnet_sdio_disconnect_work, .-rmnet_sdio_disconnect_work
	.align	2
	.syntax unified
	.arm
	.fpu softvfp
	.type	rmnet_sdio_reset_stats, %function
rmnet_sdio_reset_stats:
	.fnstart
	@ args = 0, pretend = 0, frame = 0
	@ frame_needed = 0, uses_anonymous_args = 0
	@ link register save eliminated.
	ldr	r3, [r0, #124]
	mov	r1, #0
	mov	r0, r2
	str	r1, [r3, #328]
	str	r1, [r3, #356]
	str	r1, [r3, #360]
	str	r1, [r3, #364]
	str	r1, [r3, #368]
	str	r1, [r3, #372]
	bx	lr
	.fnend
	.size	rmnet_sdio_reset_stats, .-rmnet_sdio_reset_stats
	.align	2
	.syntax unified
	.arm
	.fpu softvfp
	.type	rmnet_mux_suspend, %function
rmnet_mux_suspend:
	.fnstart
	@ args = 0, pretend = 0, frame = 0
	@ frame_needed = 0, uses_anonymous_args = 0
	@ link register save eliminated.
	ldr	r3, [r0, #372]
	cmp	r3, #0
	beq	.L68
	ldr	r3, [r0, #352]
	bic	r3, r3, #2
	str	r3, [r0, #352]
.L68:
	bx	lr
	.fnend
	.size	rmnet_mux_suspend, .-rmnet_mux_suspend
	.align	2
	.syntax unified
	.arm
	.fpu softvfp
	.type	rmnet_mux_unbind, %function
rmnet_mux_unbind:
	.fnstart
	@ args = 0, pretend = 0, frame = 0
	@ frame_needed = 0, uses_anonymous_args = 0
	@ link register save eliminated.
	mov	r3, #0
	str	r3, [r1, #172]
	bx	lr
	.fnend
	.size	rmnet_mux_unbind, .-rmnet_mux_unbind
	.align	2
	.syntax unified
	.arm
	.fpu softvfp
	.type	rmnet_mux_reset_stats, %function
rmnet_mux_reset_stats:
	.fnstart
	@ args = 0, pretend = 0, frame = 0
	@ frame_needed = 0, uses_anonymous_args = 0
	@ link register save eliminated.
	ldr	r3, [r0, #124]
	mov	r1, #0
	mov	r0, r2
	str	r1, [r3, #312]
	str	r1, [r3, #400]
	str	r1, [r3, #404]
	str	r1, [r3, #408]
	str	r1, [r3, #412]
	str	r1, [r3, #416]
	str	r1, [r3, #420]
	str	r1, [r3, #424]
	bx	lr
	.fnend
	.size	rmnet_mux_reset_stats, .-rmnet_mux_reset_stats
	.align	2
	.global	usb_rmnet_mux_ctrl_release
	.syntax unified
	.arm
	.fpu softvfp
	.type	usb_rmnet_mux_ctrl_release, %function
usb_rmnet_mux_ctrl_release:
	.fnstart
	@ args = 0, pretend = 0, frame = 0
	@ frame_needed = 0, uses_anonymous_args = 0
	strd	r4, [sp, #-24]!
	.save {r4, r5, r6, r7, r8, lr}
	mov	r5, r1
	mov	r4, #0
	strd	r6, [sp, #8]
	str	r8, [sp, #16]
	str	lr, [sp, #20]
	ldr	r7, [r1, #124]
	add	r6, r7, #368
	mov	r0, r6
	bl	_raw_spin_lock_irqsave
	mov	r1, r0
	str	r4, [r7, #356]
	mov	r0, r6
	str	r4, [r5, #124]
	bl	_raw_spin_unlock_irqrestore
	ldrd	r6, [sp, #8]
	mov	r0, r4
	ldrd	r4, [sp]
	ldr	r8, [sp, #16]
	add	sp, sp, #20
	ldr	pc, [sp], #4
	.fnend
	.size	usb_rmnet_mux_ctrl_release, .-usb_rmnet_mux_ctrl_release
	.align	2
	.syntax unified
	.arm
	.fpu softvfp
	.type	audio_disable, %function
audio_disable:
	.fnstart
	@ args = 0, pretend = 0, frame = 0
	@ frame_needed = 0, uses_anonymous_args = 0
	ldrb	r3, [r0, #152]	@ zero_extendqisi2
	cmp	r3, #0
	bxeq	lr
	.save {r4, lr}
	str	r4, [sp, #-8]!
	mov	r4, r0
	str	lr, [sp, #4]
	ldr	r0, [r0, #104]
	ldr	r3, [r0, #8]
	ldr	r3, [r3, #4]
	blx	r3
	mov	r3, #0
	strb	r3, [r4, #152]
	ldr	r4, [sp]
	add	sp, sp, #4
	ldr	pc, [sp], #4
	.fnend
	.size	audio_disable, .-audio_disable
	.align	2
	.syntax unified
	.arm
	.fpu softvfp
	.type	audio_pcm_close, %function
audio_pcm_close:
	.fnstart
	@ args = 0, pretend = 0, frame = 0
	@ frame_needed = 0, uses_anonymous_args = 0
	strd	r4, [sp, #-16]!
	.save {r4, r5, r6, lr}
	mov	r4, #0
	str	r6, [sp, #8]
	str	lr, [sp, #12]
	ldr	r6, [r0, #8]
	add	r5, r6, #108
	mov	r0, r5
	bl	_raw_spin_lock_irqsave
	mov	r1, r0
	str	r4, [r6, #92]
	mov	r0, r5
	bl	_raw_spin_unlock_irqrestore
	ldr	r6, [sp, #8]
	mov	r0, r4
	ldrd	r4, [sp]
	add	sp, sp, #12
	ldr	pc, [sp], #4
	.fnend
	.size	audio_pcm_close, .-audio_pcm_close
	.align	2
	.syntax unified
	.arm
	.fpu softvfp
	.type	audio_pcm_prepare, %function
audio_pcm_prepare:
	.fnstart
	@ args = 0, pretend = 0, frame = 0
	@ frame_needed = 0, uses_anonymous_args = 0
	mov	ip, r0
	.save {r4, lr}
	str	r4, [sp, #-8]!
	str	lr, [sp, #4]
	ldr	r1, [ip, #168]
	mov	lr, #0
	mov	r0, lr
	ldr	r4, [r1, #60]
	ldr	r2, [r1, #80]
	ldr	r3, [r1, #200]
	mul	r2, r2, r4
	str	lr, [r3, #128]
	lsr	r2, r2, #3
	str	r2, [r3, #124]
	ldr	r2, [r1, #540]
	str	r2, [r3, #112]
	ldr	ip, [ip, #168]
	ldr	lr, [ip, #68]
	ldr	r1, [ip, #80]
	str	r2, [r3, #120]
	mul	r1, r1, lr
	add	r2, r2, r1, lsr #3
	str	r2, [r3, #116]
	ldr	r4, [sp]
	add	sp, sp, #4
	ldr	pc, [sp], #4
	.fnend
	.size	audio_pcm_prepare, .-audio_pcm_prepare
	.align	2
	.syntax unified
	.arm
	.fpu softvfp
	.type	audio_pcm_pointer, %function
audio_pcm_pointer:
	.fnstart
	@ args = 0, pretend = 0, frame = 0
	@ frame_needed = 0, uses_anonymous_args = 0
	@ link register save eliminated.
	ldr	r3, [r0, #168]
	ldr	r0, [r3, #80]
	ldr	r2, [r3, #200]
	ldr	r1, [r2, #112]
	ldr	r3, [r2, #120]
	sub	r3, r3, r1
	lsl	r3, r3, #3
	udiv	r0, r3, r0
	bx	lr
	.fnend
	.size	audio_pcm_pointer, .-audio_pcm_pointer
	.align	2
	.syntax unified
	.arm
	.fpu softvfp
	.type	ffs_ep0_ioctl, %function
ffs_ep0_ioctl:
	.fnstart
	@ args = 0, pretend = 0, frame = 0
	@ frame_needed = 0, uses_anonymous_args = 0
	movw	ip, #26496
	ldr	r0, [r0, #124]
	cmp	r1, ip
	beq	.L105
	ldr	r0, [r0]
	cmp	r0, #0
	beq	.L99
	ldr	r3, [r0]
	ldr	r3, [r3, #24]
	cmp	r3, #0
	beq	.L99
	bx	r3
.L105:
	mov	r3, r2
	ldr	r2, [r0, #136]
	cmp	r2, #0
	beq	.L96
	.save {lr}
	str	lr, [sp, #-4]!
	ldr	r1, [r2, #8]
	ldr	lr, [r2, #32]
	ldrh	r1, [r1, #182]
	cmp	r1, #0
	beq	.L97
	uxtb	r2, r3
	mov	ip, lr
.L95:
	mov	r3, ip
	ldrsh	r0, [r3], #2
	cmp	r0, #0
	blt	.L94
	cmp	r0, r2
	beq	.L106
.L94:
	subs	r1, r1, #1
	mov	ip, r3
	bne	.L95
.L97:
	mvn	r0, #32
	ldr	pc, [sp], #4
.L106:
	sub	r0, ip, lr
	asr	r0, r0, #1
	ldr	pc, [sp], #4
.L99:
	mvn	r0, #24
	bx	lr
.L96:
	mvn	r0, #18
	bx	lr
	.fnend
	.size	ffs_ep0_ioctl, .-ffs_ep0_ioctl
	.align	2
	.syntax unified
	.arm
	.fpu softvfp
	.type	gs_write_room, %function
gs_write_room:
	.fnstart
	@ args = 0, pretend = 0, frame = 0
	@ frame_needed = 0, uses_anonymous_args = 0
	strd	r4, [sp, #-16]!
	.save {r4, r5, r6, lr}
	str	r6, [sp, #8]
	str	lr, [sp, #12]
	ldr	r4, [r0, #280]
	mov	r0, r4
	bl	_raw_spin_lock_irqsave
	ldr	r3, [r4, #4]
	mov	r1, r0
	cmp	r3, #0
	moveq	r5, r3
	beq	.L108
	ldr	r2, [r4, #92]
	ldr	r3, [r4, #100]
	ldr	r0, [r4, #104]
	add	r3, r3, r2
	sub	r3, r3, r0
	sub	r3, r3, #1
	udiv	r5, r3, r2
	mls	r5, r2, r5, r3
.L108:
	mov	r0, r4
	bl	_raw_spin_unlock_irqrestore
	ldr	r6, [sp, #8]
	mov	r0, r5
	ldrd	r4, [sp]
	add	sp, sp, #12
	ldr	pc, [sp], #4
	.fnend
	.size	gs_write_room, .-gs_write_room
	.align	2
	.syntax unified
	.arm
	.fpu softvfp
	.type	gs_chars_in_buffer, %function
gs_chars_in_buffer:
	.fnstart
	@ args = 0, pretend = 0, frame = 0
	@ frame_needed = 0, uses_anonymous_args = 0
	.save {r4, lr}
	str	r4, [sp, #-8]!
	str	lr, [sp, #4]
	ldr	r4, [r0, #280]
	mov	r0, r4
	bl	_raw_spin_lock_irqsave
	ldr	r2, [r4, #92]
	mov	r1, r0
	mov	r0, r4
	ldr	ip, [r4, #100]
	ldr	r3, [r4, #104]
	add	r3, r3, r2
	sub	r3, r3, ip
	udiv	r4, r3, r2
	mls	r4, r2, r4, r3
	bl	_raw_spin_unlock_irqrestore
	mov	r0, r4
	ldr	r4, [sp]
	add	sp, sp, #4
	ldr	pc, [sp], #4
	.fnend
	.size	gs_chars_in_buffer, .-gs_chars_in_buffer
	.align	2
	.syntax unified
	.arm
	.fpu softvfp
	.type	gs_break_ctl, %function
gs_break_ctl:
	.fnstart
	@ args = 0, pretend = 0, frame = 0
	@ frame_needed = 0, uses_anonymous_args = 0
	strd	r4, [sp, #-16]!
	.save {r4, r5, r6, lr}
	str	r6, [sp, #8]
	mov	r6, r1
	str	lr, [sp, #12]
	ldr	r5, [r0, #280]
	mov	r0, r5
	bl	_raw_spin_lock_irq
	ldr	r0, [r5, #4]
	cmp	r0, #0
	moveq	r4, r0
	beq	.L114
	ldr	r4, [r0, #124]
	cmp	r4, #0
	beq	.L114
	mov	r1, r6
	blx	r4
	mov	r4, r0
.L114:
	mov	r0, r5
	bl	_raw_spin_unlock_irq
	ldr	r6, [sp, #8]
	mov	r0, r4
	ldrd	r4, [sp]
	add	sp, sp, #12
	ldr	pc, [sp], #4
	.fnend
	.size	gs_break_ctl, .-gs_break_ctl
	.align	2
	.syntax unified
	.arm
	.fpu softvfp
	.type	gs_tiocmget, %function
gs_tiocmget:
	.fnstart
	@ args = 0, pretend = 0, frame = 0
	@ frame_needed = 0, uses_anonymous_args = 0
	strd	r4, [sp, #-16]!
	.save {r4, r5, r6, lr}
	str	r6, [sp, #8]
	str	lr, [sp, #12]
	ldr	r6, [r0, #280]
	mov	r0, r6
	bl	_raw_spin_lock_irq
	ldr	r5, [r6, #4]
	cmp	r5, #0
	mvneq	r4, #18
	beq	.L119
	ldr	r4, [r5, #108]
	cmp	r4, #0
	beq	.L120
	mov	r0, r5
	blx	r4
	cmp	r0, #0
	movne	r4, #2
	moveq	r4, #0
.L120:
	ldr	r3, [r5, #112]
	cmp	r3, #0
	beq	.L122
	mov	r0, r5
	blx	r3
	cmp	r0, #0
	orrne	r4, r4, #4
.L122:
	ldrh	r3, [r5, #104]
	tst	r3, #64
	orrne	r4, r4, #64
	tst	r3, #128
	orrne	r4, r4, #128
.L119:
	mov	r0, r6
	bl	_raw_spin_unlock_irq
	ldr	r6, [sp, #8]
	mov	r0, r4
	ldrd	r4, [sp]
	add	sp, sp, #12
	ldr	pc, [sp], #4
	.fnend
	.size	gs_tiocmget, .-gs_tiocmget
	.align	2
	.syntax unified
	.arm
	.fpu softvfp
	.type	gs_tiocmset, %function
gs_tiocmset:
	.fnstart
	@ args = 0, pretend = 0, frame = 0
	@ frame_needed = 0, uses_anonymous_args = 0
	strd	r4, [sp, #-32]!
	.save {r4, r5, r6, r7, r8, r9, r10, lr}
	strd	r6, [sp, #8]
	mov	r6, r2
	strd	r8, [sp, #16]
	mov	r8, r1
	str	r10, [sp, #24]
	str	lr, [sp, #28]
	ldr	r7, [r0, #280]
	mov	r0, r7
	bl	_raw_spin_lock_irq
	ldr	r4, [r7, #4]
	cmp	r4, #0
	beq	.L145
	ands	r5, r8, #128
	and	r9, r6, #128
	beq	.L142
	ldr	r5, [r4, #132]
	cmp	r5, #0
	beq	.L143
	ldrh	r3, [r4, #104]
	mov	r1, #1
	mov	r0, r4
	orr	r3, r3, #128
	strh	r3, [r4, #104]	@ movhi
	blx	r5
	mov	r5, r0
.L142:
	cmp	r9, #0
	beq	.L143
	ldr	r2, [r4, #132]
	cmp	r2, #0
	beq	.L143
	ldrh	r3, [r4, #104]
	mov	r1, #0
	mov	r0, r4
	bic	r3, r3, #128
	strh	r3, [r4, #104]	@ movhi
	blx	r2
	mov	r5, r0
.L143:
	tst	r8, #64
	and	r6, r6, #64
	bne	.L167
.L144:
	cmp	r6, #0
	beq	.L141
	ldr	r2, [r4, #128]
	cmp	r2, #0
	beq	.L141
	ldrh	r3, [r4, #104]
	mov	r0, r4
	mov	r1, #0
	bic	r3, r3, #64
	strh	r3, [r4, #104]	@ movhi
	blx	r2
	mov	r5, r0
.L141:
	mov	r0, r7
	bl	_raw_spin_unlock_irq
	ldrd	r6, [sp, #8]
	mov	r0, r5
	ldrd	r4, [sp]
	ldrd	r8, [sp, #16]
	ldr	r10, [sp, #24]
	add	sp, sp, #28
	ldr	pc, [sp], #4
.L167:
	ldr	r2, [r4, #128]
	cmp	r2, #0
	beq	.L141
	ldrh	r3, [r4, #104]
	mov	r1, #1
	mov	r0, r4
	orr	r3, r3, #64
	strh	r3, [r4, #104]	@ movhi
	blx	r2
	mov	r5, r0
	b	.L144
.L145:
	mvn	r5, #18
	b	.L141
	.fnend
	.size	gs_tiocmset, .-gs_tiocmset
	.align	2
	.syntax unified
	.arm
	.fpu softvfp
	.type	debug_write_reset, %function
debug_write_reset:
	.fnstart
	@ args = 0, pretend = 0, frame = 0
	@ frame_needed = 0, uses_anonymous_args = 0
	strd	r4, [sp, #-16]!
	.save {r4, r5, r6, lr}
	mov	r5, r2
	str	r6, [sp, #8]
	str	lr, [sp, #12]
	ldr	r4, [r0, #124]
	mov	r0, r4
	bl	_raw_spin_lock_irqsave
	mov	r3, #0
	mov	r1, r0
	mov	r0, r4
	str	r3, [r4, #128]
	str	r3, [r4, #132]
	str	r3, [r4, #136]
	str	r3, [r4, #140]
	bl	_raw_spin_unlock_irqrestore
	ldr	r6, [sp, #8]
	mov	r0, r5
	ldrd	r4, [sp]
	add	sp, sp, #12
	ldr	pc, [sp], #4
	.fnend
	.size	debug_write_reset, .-debug_write_reset
	.align	2
	.syntax unified
	.arm
	.fpu softvfp
	.type	debug_sdio_reset_stats, %function
debug_sdio_reset_stats:
	.fnstart
	@ args = 0, pretend = 0, frame = 0
	@ frame_needed = 0, uses_anonymous_args = 0
	strd	r4, [sp, #-32]!
	.save {r4, r5, r6, r7, r8, r9, r10, lr}
	strd	r6, [sp, #8]
	movw	r7, #:lower16:.LANCHOR1
	movt	r7, #:upper16:.LANCHOR1
	strd	r8, [sp, #16]
	ldr	r3, [r7]
	str	r10, [sp, #24]
	mov	r10, r2
	str	lr, [sp, #28]
	cmp	r3, #0
	beq	.L171
	mov	r5, #0
	add	r6, r7, #4
	mov	r9, r5
.L172:
	ldr	r4, [r6, #24]
	add	r5, r5, #1
	add	r6, r6, #108
	add	r8, r4, #4
	mov	r0, r8
	bl	_raw_spin_lock_irqsave
	mov	r1, r0
	str	r9, [r4, #184]
	mov	r0, r8
	str	r9, [r4, #188]
	bl	_raw_spin_unlock_irqrestore
	ldr	r3, [r7]
	cmp	r5, r3
	bcc	.L172
.L171:
	mov	r0, r10
	ldrd	r4, [sp]
	ldrd	r6, [sp, #8]
	ldrd	r8, [sp, #16]
	ldr	r10, [sp, #24]
	add	sp, sp, #28
	ldr	pc, [sp], #4
	.fnend
	.size	debug_sdio_reset_stats, .-debug_sdio_reset_stats
	.align	2
	.syntax unified
	.arm
	.fpu softvfp
	.type	debug_smd_reset_stats, %function
debug_smd_reset_stats:
	.fnstart
	@ args = 0, pretend = 0, frame = 0
	@ frame_needed = 0, uses_anonymous_args = 0
	strd	r4, [sp, #-32]!
	.save {r4, r5, r6, r7, r8, r9, r10, lr}
	strd	r6, [sp, #8]
	movw	r7, #:lower16:.LANCHOR1
	movt	r7, #:upper16:.LANCHOR1
	strd	r8, [sp, #16]
	ldr	r3, [r7, #220]
	str	r10, [sp, #24]
	mov	r10, r2
	str	lr, [sp, #28]
	cmp	r3, #0
	beq	.L179
	mov	r5, #0
	add	r6, r7, #224
	mov	r9, r5
.L180:
	ldr	r4, [r6, #24]
	add	r5, r5, #1
	add	r6, r6, #108
	add	r8, r4, #4
	mov	r0, r8
	bl	_raw_spin_lock_irqsave
	mov	r1, r0
	str	r9, [r4, #168]
	mov	r0, r8
	str	r9, [r4, #172]
	bl	_raw_spin_unlock_irqrestore
	ldr	r3, [r7, #220]
	cmp	r5, r3
	bcc	.L180
.L179:
	mov	r0, r10
	ldrd	r4, [sp]
	ldrd	r6, [sp, #8]
	ldrd	r8, [sp, #16]
	ldr	r10, [sp, #24]
	add	sp, sp, #28
	ldr	pc, [sp], #4
	.fnend
	.size	debug_smd_reset_stats, .-debug_smd_reset_stats
	.align	2
	.syntax unified
	.arm
	.fpu softvfp
	.type	gbam_wake_cb, %function
gbam_wake_cb:
	.fnstart
	@ args = 0, pretend = 0, frame = 0
	@ frame_needed = 0, uses_anonymous_args = 0
	@ link register save eliminated.
	ldr	r3, [r0, #16]
	ldr	r3, [r3, #128]
	ldr	r0, [r3]
	ldr	r3, [r0]
	ldr	r3, [r3, #4]
	cmp	r3, #0
	beq	.L187
	bx	r3
.L187:
	mvn	r0, #94
	bx	lr
	.fnend
	.size	gbam_wake_cb, .-gbam_wake_cb
	.align	2
	.syntax unified
	.arm
	.fpu softvfp
	.type	gbam_reset_stats, %function
gbam_reset_stats:
	.fnstart
	@ args = 0, pretend = 0, frame = 0
	@ frame_needed = 0, uses_anonymous_args = 0
	movw	r3, #:lower16:.LANCHOR1
	strd	r4, [sp, #-24]!
	.save {r4, r5, r6, r7, r8, lr}
	movt	r3, #:upper16:.LANCHOR1
	strd	r6, [sp, #8]
	mov	r7, r2
	str	r8, [sp, #16]
	str	lr, [sp, #20]
	ldr	r2, [r3, #440]
	cmp	r2, #0
	ble	.L189
	ldr	r4, [r3, #444]
	cmp	r4, #0
	beq	.L189
	add	r5, r4, #4
	add	r6, r4, #8
	mov	r0, r5
	bl	_raw_spin_lock_irqsave
	mov	r8, r0
	mov	r0, r6
	bl	_raw_spin_lock
	mov	r3, #0
	mov	r0, r6
	str	r3, [r4, #240]
	str	r3, [r4, #244]
	str	r3, [r4, #248]
	str	r3, [r4, #260]
	str	r3, [r4, #264]
	str	r3, [r4, #268]
	str	r3, [r4, #272]
	str	r3, [r4, #276]
	str	r3, [r4, #280]
	bl	_raw_spin_unlock
	mov	r1, r8
	mov	r0, r5
	bl	_raw_spin_unlock_irqrestore
.L189:
	mov	r0, r7
	ldrd	r4, [sp]
	ldrd	r6, [sp, #8]
	ldr	r8, [sp, #16]
	add	sp, sp, #20
	ldr	pc, [sp], #4
	.fnend
	.size	gbam_reset_stats, .-gbam_reset_stats
	.align	2
	.syntax unified
	.arm
	.fpu softvfp
	.type	gsmd_ctrl_reset_stats, %function
gsmd_ctrl_reset_stats:
	.fnstart
	@ args = 0, pretend = 0, frame = 0
	@ frame_needed = 0, uses_anonymous_args = 0
	strd	r4, [sp, #-32]!
	.save {r4, r5, r6, r7, r8, r9, r10, lr}
	ldr	r5, .L203
	strd	r6, [sp, #8]
	mov	r7, #0
	strd	r8, [sp, #16]
	mov	r9, r2
	str	r10, [sp, #24]
	add	r8, r5, #504
	str	lr, [sp, #28]
.L197:
	ldr	r4, [r5]
	add	r5, r5, #84
	cmp	r4, #0
	add	r6, r4, #108
	mov	r0, r6
	beq	.L196
	bl	_raw_spin_lock_irqsave
	mov	r1, r0
	str	r7, [r4, #92]
	mov	r0, r6
	str	r7, [r4, #96]
	bl	_raw_spin_unlock_irqrestore
.L196:
	cmp	r5, r8
	bne	.L197
	mov	r0, r9
	ldrd	r4, [sp]
	ldrd	r6, [sp, #8]
	ldrd	r8, [sp, #16]
	ldr	r10, [sp, #24]
	add	sp, sp, #28
	ldr	pc, [sp], #4
.L204:
	.align	2
.L203:
	.word	.LANCHOR1+528
	.fnend
	.size	gsmd_ctrl_reset_stats, .-gsmd_ctrl_reset_stats
	.align	2
	.syntax unified
	.arm
	.fpu softvfp
	.type	rmnet_ctrl_open, %function
rmnet_ctrl_open:
	.fnstart
	@ args = 0, pretend = 0, frame = 0
	@ frame_needed = 0, uses_anonymous_args = 0
	strd	r4, [sp, #-16]!
	.save {r4, r5, r6, lr}
	movw	r4, #:lower16:.LANCHOR1
	movt	r4, #:upper16:.LANCHOR1
	str	r6, [sp, #8]
	ldr	r3, [r4, #1032]
	str	lr, [sp, #12]
	add	r2, r3, #16
	.syntax divided
@ 61 "/home/pascua14/Desktop/s5-kernel/arch/arm/include/asm/atomic.h" 1
	dmb
@ 0 "" 2
@ 63 "/home/pascua14/Desktop/s5-kernel/arch/arm/include/asm/atomic.h" 1
	@ atomic_add_return
1:	ldrex	r5, [r2]
	add	r5, r5, #1
	strex	r0, r5, [r2]
	teq	r0, #0
	bne	1b
@ 0 "" 2
@ 73 "/home/pascua14/Desktop/s5-kernel/arch/arm/include/asm/atomic.h" 1
	dmb
@ 0 "" 2
	.arm
	.syntax unified
	cmp	r5, #1
	bne	.L206
	ldr	r0, [r4, #1032]
	str	r0, [r1, #124]
	add	r0, r0, #52
	bl	_raw_spin_lock_irqsave
	ldr	r3, [r4, #1032]
	mov	r1, r0
	strb	r5, [r3, #4]
	add	r0, r3, #52
	bl	_raw_spin_unlock_irqrestore
	mov	r0, #0
.L205:
	ldrd	r4, [sp]
	ldr	r6, [sp, #8]
	add	sp, sp, #12
	ldr	pc, [sp], #4
.L206:
	.syntax divided
@ 83 "/home/pascua14/Desktop/s5-kernel/arch/arm/include/asm/atomic.h" 1
	@ atomic_sub
1:	ldrex	r1, [r2]
	sub	r1, r1, #1
	strex	r0, r1, [r2]
	teq	r0, #0
	bne	1b
@ 0 "" 2
	.arm
	.syntax unified
	mvn	r0, #15
	b	.L205
	.fnend
	.size	rmnet_ctrl_open, .-rmnet_ctrl_open
	.align	2
	.syntax unified
	.arm
	.fpu softvfp
	.type	rmnet_ctrl_release, %function
rmnet_ctrl_release:
	.fnstart
	@ args = 0, pretend = 0, frame = 0
	@ frame_needed = 0, uses_anonymous_args = 0
	strd	r4, [sp, #-16]!
	.save {r4, r5, r6, lr}
	mov	r5, #0
	str	r6, [sp, #8]
	str	lr, [sp, #12]
	ldr	r4, [r1, #124]
	add	r6, r4, #52
	mov	r0, r6
	bl	_raw_spin_lock_irqsave
	mov	r1, r0
	strb	r5, [r4, #4]
	mov	r0, r6
	bl	_raw_spin_unlock_irqrestore
	add	r3, r4, #16
	.syntax divided
@ 83 "/home/pascua14/Desktop/s5-kernel/arch/arm/include/asm/atomic.h" 1
	@ atomic_sub
1:	ldrex	r2, [r3]
	sub	r2, r2, #1
	strex	r1, r2, [r3]
	teq	r1, #0
	bne	1b
@ 0 "" 2
	.arm
	.syntax unified
	mov	r0, r5
	ldrd	r4, [sp]
	ldr	r6, [sp, #8]
	add	sp, sp, #12
	ldr	pc, [sp], #4
	.fnend
	.size	rmnet_ctrl_release, .-rmnet_ctrl_release
	.align	2
	.syntax unified
	.arm
	.fpu softvfp
	.type	ghsic_ctrl_receive, %function
ghsic_ctrl_receive:
	.fnstart
	@ args = 0, pretend = 0, frame = 0
	@ frame_needed = 0, uses_anonymous_args = 0
	.save {r4, lr}
	str	r4, [sp, #-8]!
	subs	r4, r0, #0
	str	lr, [sp, #4]
	moveq	r0, r4
	beq	.L211
	ldr	r3, [r4, #52]
	cmp	r3, #0
	beq	.L214
	ldr	r0, [r4, #8]
	blx	r3
	ldr	r3, [r4, #100]
	add	r3, r3, #1
	str	r3, [r4, #100]
.L211:
	ldr	r4, [sp]
	add	sp, sp, #4
	ldr	pc, [sp], #4
.L214:
	mov	r0, r3
	b	.L211
	.fnend
	.size	ghsic_ctrl_receive, .-ghsic_ctrl_receive
	.align	2
	.syntax unified
	.arm
	.fpu softvfp
	.type	ghsic_ctrl_status, %function
ghsic_ctrl_status:
	.fnstart
	@ args = 0, pretend = 0, frame = 0
	@ frame_needed = 0, uses_anonymous_args = 0
	@ link register save eliminated.
	ldr	r3, [r0, #8]
	str	r1, [r0, #92]
	cmp	r3, #0
	beq	.L216
	ldr	r2, [r3, #136]
	cmp	r2, #0
	beq	.L216
	mov	r0, r3
	bx	r2
.L216:
	bx	lr
	.fnend
	.size	ghsic_ctrl_status, .-ghsic_ctrl_status
	.align	2
	.syntax unified
	.arm
	.fpu softvfp
	.type	gctrl_reset_stats, %function
gctrl_reset_stats:
	.fnstart
	@ args = 0, pretend = 0, frame = 0
	@ frame_needed = 0, uses_anonymous_args = 0
	strd	r4, [sp, #-32]!
	.save {r4, r5, r6, r7, r8, r9, r10, lr}
	strd	r6, [sp, #8]
	strd	r8, [sp, #16]
	movw	r9, #:lower16:.LANCHOR1
	movt	r9, #:upper16:.LANCHOR1
	str	r10, [sp, #24]
	mov	r10, r2
	ldr	r3, [r9, #1036]
	str	lr, [sp, #28]
	cmp	r3, #0
	beq	.L225
	mov	r5, #0
	add	r6, r9, #1040
	mov	r8, r5
.L226:
	ldr	r4, [r6]
	cmp	r4, #0
	add	r7, r4, #4
	mov	r0, r7
	beq	.L227
	bl	_raw_spin_lock_irqsave
	mov	r1, r0
	str	r8, [r4, #96]
	mov	r0, r7
	str	r8, [r4, #100]
	add	r5, r5, #1
	add	r6, r6, #104
	str	r8, [r4, #104]
	bl	_raw_spin_unlock_irqrestore
	ldr	r3, [r9, #1036]
	cmp	r3, r5
	bhi	.L226
.L225:
	mov	r0, r10
	ldrd	r4, [sp]
	ldrd	r6, [sp, #8]
	ldrd	r8, [sp, #16]
	ldr	r10, [sp, #24]
	add	sp, sp, #28
	ldr	pc, [sp], #4
.L227:
	add	r5, r5, #1
	add	r6, r6, #104
	cmp	r5, r3
	bcc	.L226
	b	.L225
	.fnend
	.size	gctrl_reset_stats, .-gctrl_reset_stats
	.align	2
	.syntax unified
	.arm
	.fpu softvfp
	.type	ghsic_data_reset_stats, %function
ghsic_data_reset_stats:
	.fnstart
	@ args = 0, pretend = 0, frame = 0
	@ frame_needed = 0, uses_anonymous_args = 0
	strd	r4, [sp, #-36]!
	.save {r4, r5, r6, r7, r8, r9, r10, fp, lr}
	strd	r6, [sp, #8]
	strd	r10, [sp, #24]
	movw	fp, #:lower16:.LANCHOR1
	mov	r10, r2
	strd	r8, [sp, #16]
	movt	fp, #:upper16:.LANCHOR1
	str	lr, [sp, #32]
	.pad #4
	sub	sp, sp, #4
	ldr	r3, [fp, #1456]
	cmp	r3, #0
	beq	.L234
	ldr	r7, .L242
	mov	r6, #0
	mov	r5, r6
.L235:
	ldr	r4, [r7]
	cmp	r4, #0
	add	r8, r4, #80
	add	r9, r4, #48
	mov	r0, r8
	beq	.L236
	bl	_raw_spin_lock_irqsave
	mov	r1, r0
	str	r5, [r4, #188]
	mov	r0, r8
	str	r5, [r4, #204]
	add	r6, r6, #1
	add	r7, r7, #104
	str	r5, [r4, #208]
	str	r5, [r4, #212]
	bl	_raw_spin_unlock_irqrestore
	mov	r0, r9
	bl	_raw_spin_lock_irqsave
	mov	r1, r0
	str	r5, [r4, #192]
	mov	r0, r9
	str	r5, [r4, #196]
	str	r5, [r4, #200]
	str	r5, [r4, #216]
	bl	_raw_spin_unlock_irqrestore
	ldr	r3, [fp, #1456]
	cmp	r3, r6
	bhi	.L235
.L234:
	mov	r0, r10
	add	sp, sp, #4
	@ sp needed
	ldrd	r4, [sp]
	ldrd	r6, [sp, #8]
	ldrd	r8, [sp, #16]
	ldrd	r10, [sp, #24]
	add	sp, sp, #32
	ldr	pc, [sp], #4
.L236:
	add	r6, r6, #1
	add	r7, r7, #104
	cmp	r6, r3
	bcc	.L235
	b	.L234
.L243:
	.align	2
.L242:
	.word	.LANCHOR1+1460
	.fnend
	.size	ghsic_data_reset_stats, .-ghsic_data_reset_stats
	.align	2
	.syntax unified
	.arm
	.fpu softvfp
	.type	ghsuart_ctrl_reset_stats, %function
ghsuart_ctrl_reset_stats:
	.fnstart
	@ args = 0, pretend = 0, frame = 0
	@ frame_needed = 0, uses_anonymous_args = 0
	strd	r4, [sp, #-32]!
	.save {r4, r5, r6, r7, r8, r9, r10, lr}
	strd	r6, [sp, #8]
	movw	r7, #:lower16:.LANCHOR1
	movt	r7, #:upper16:.LANCHOR1
	strd	r8, [sp, #16]
	ldr	r3, [r7, #1876]
	str	r10, [sp, #24]
	mov	r10, r2
	str	lr, [sp, #28]
	cmp	r3, #0
	beq	.L245
	ldr	r6, .L253
	mov	r5, #0
	mov	r9, r5
.L246:
	ldr	r4, [r6]
	cmp	r4, #0
	add	r8, r4, #8
	mov	r0, r8
	beq	.L247
	bl	_raw_spin_lock_irqsave
	mov	r1, r0
	str	r9, [r4, #96]
	mov	r0, r8
	str	r9, [r4, #100]
	add	r5, r5, #1
	add	r6, r6, #84
	str	r9, [r4, #104]
	bl	_raw_spin_unlock_irqrestore
	ldr	r3, [r7, #1876]
	cmp	r3, r5
	bhi	.L246
.L245:
	mov	r0, r10
	ldrd	r4, [sp]
	ldrd	r6, [sp, #8]
	ldrd	r8, [sp, #16]
	ldr	r10, [sp, #24]
	add	sp, sp, #28
	ldr	pc, [sp], #4
.L247:
	add	r5, r5, #1
	add	r6, r6, #84
	cmp	r5, r3
	bcc	.L246
	b	.L245
.L254:
	.align	2
.L253:
	.word	.LANCHOR1+1880
	.fnend
	.size	ghsuart_ctrl_reset_stats, .-ghsuart_ctrl_reset_stats
	.align	2
	.syntax unified
	.arm
	.fpu softvfp
	.type	ghsuart_data_reset_stats, %function
ghsuart_data_reset_stats:
	.fnstart
	@ args = 0, pretend = 0, frame = 0
	@ frame_needed = 0, uses_anonymous_args = 0
	strd	r4, [sp, #-36]!
	.save {r4, r5, r6, r7, r8, r9, r10, fp, lr}
	strd	r6, [sp, #8]
	movw	r7, #:lower16:.LANCHOR1
	movt	r7, #:upper16:.LANCHOR1
	strd	r8, [sp, #16]
	ldr	r3, [r7, #2048]
	strd	r10, [sp, #24]
	mov	r10, r2
	str	lr, [sp, #32]
	.pad #4
	sub	sp, sp, #4
	cmp	r3, #0
	beq	.L256
	ldr	r6, .L264
	mov	r5, #0
	mov	r8, r5
.L257:
	ldr	r4, [r6]
	cmp	r4, #0
	add	fp, r4, #104
	add	r9, r4, #72
	mov	r0, fp
	beq	.L258
	bl	_raw_spin_lock_irqsave
	mov	r1, r0
	str	r8, [r4, #204]
	mov	r0, fp
	str	r8, [r4, #212]
	add	r5, r5, #1
	add	r6, r6, #84
	bl	_raw_spin_unlock_irqrestore
	mov	r0, r9
	bl	_raw_spin_lock_irqsave
	mov	r1, r0
	str	r8, [r4, #208]
	mov	r0, r9
	bl	_raw_spin_unlock_irqrestore
	ldr	r3, [r7, #2048]
	cmp	r3, r5
	bhi	.L257
.L256:
	mov	r0, r10
	add	sp, sp, #4
	@ sp needed
	ldrd	r4, [sp]
	ldrd	r6, [sp, #8]
	ldrd	r8, [sp, #16]
	ldrd	r10, [sp, #24]
	add	sp, sp, #32
	ldr	pc, [sp], #4
.L258:
	add	r5, r5, #1
	add	r6, r6, #84
	cmp	r5, r3
	bcc	.L257
	b	.L256
.L265:
	.align	2
.L264:
	.word	.LANCHOR1+2052
	.fnend
	.size	ghsuart_data_reset_stats, .-ghsuart_data_reset_stats
	.align	2
	.syntax unified
	.arm
	.fpu softvfp
	.type	modem_open, %function
modem_open:
	.fnstart
	@ args = 0, pretend = 0, frame = 0
	@ frame_needed = 0, uses_anonymous_args = 0
	@ link register save eliminated.
	movw	r3, #:lower16:.LANCHOR1
	mov	r2, #0
	movt	r3, #:upper16:.LANCHOR1
	mov	r0, r2
	str	r2, [r3, #2220]
	bx	lr
	.fnend
	.size	modem_open, .-modem_open
	.align	2
	.syntax unified
	.arm
	.fpu softvfp
	.type	modem_poll, %function
modem_poll:
	.fnstart
	@ args = 0, pretend = 0, frame = 0
	@ frame_needed = 0, uses_anonymous_args = 0
	subs	r2, r1, #0
	.save {r4, lr}
	str	r4, [sp, #-8]!
	str	lr, [sp, #4]
	beq	.L268
	ldr	r3, [r2]
	cmp	r3, #0
	beq	.L268
	ldr	r1, .L279
	blx	r3
.L268:
	movw	r3, #:lower16:.LANCHOR1
	ldr	r4, [sp]
	add	sp, sp, #4
	movt	r3, #:upper16:.LANCHOR1
	ldr	r0, [r3, #2220]
	cmp	r0, #0
	movne	r0, #65
	ldr	pc, [sp], #4
.L280:
	.align	2
.L279:
	.word	.LANCHOR1+2224
	.fnend
	.size	modem_poll, .-modem_poll
	.align	2
	.syntax unified
	.arm
	.fpu softvfp
	.type	ccid_bulk_open, %function
ccid_bulk_open:
	.fnstart
	@ args = 0, pretend = 0, frame = 0
	@ frame_needed = 0, uses_anonymous_args = 0
	movw	r3, #:lower16:.LANCHOR1
	strd	r4, [sp, #-24]!
	.save {r4, r5, r6, r7, r8, lr}
	movt	r3, #:upper16:.LANCHOR1
	strd	r6, [sp, #8]
	str	r8, [sp, #16]
	str	lr, [sp, #20]
	ldr	r4, [r3, #2236]
	ldr	r3, [r4, #96]
	cmp	r3, #0
	beq	.L283
	ldr	r5, [r4, #152]
	cmp	r5, #0
	bne	.L284
	mov	r3, #1
	add	r7, r4, #92
	str	r5, [r4, #148]
	mov	r6, r1
	mov	r0, r7
	str	r3, [r4, #152]
	bl	_raw_spin_lock_irqsave
	mov	r1, r0
	str	r4, [r6, #124]
	mov	r0, r7
	bl	_raw_spin_unlock_irqrestore
	mov	r0, r5
.L281:
	ldrd	r4, [sp]
	ldrd	r6, [sp, #8]
	ldr	r8, [sp, #16]
	add	sp, sp, #20
	ldr	pc, [sp], #4
.L284:
	mvn	r0, #15
	b	.L281
.L283:
	mvn	r0, #18
	b	.L281
	.fnend
	.size	ccid_bulk_open, .-ccid_bulk_open
	.align	2
	.syntax unified
	.arm
	.fpu softvfp
	.type	ccid_bulk_release, %function
ccid_bulk_release:
	.fnstart
	@ args = 0, pretend = 0, frame = 0
	@ frame_needed = 0, uses_anonymous_args = 0
	@ link register save eliminated.
	ldr	r2, [r1, #124]
	mov	r3, #0
	mov	r0, r3
	str	r3, [r2, #152]
	bx	lr
	.fnend
	.size	ccid_bulk_release, .-ccid_bulk_release
	.align	2
	.syntax unified
	.arm
	.fpu softvfp
	.type	ccid_ctrl_open, %function
ccid_ctrl_open:
	.fnstart
	@ args = 0, pretend = 0, frame = 0
	@ frame_needed = 0, uses_anonymous_args = 0
	movw	r3, #:lower16:.LANCHOR1
	strd	r4, [sp, #-24]!
	.save {r4, r5, r6, r7, r8, lr}
	movt	r3, #:upper16:.LANCHOR1
	strd	r6, [sp, #8]
	str	r8, [sp, #16]
	str	lr, [sp, #20]
	ldr	r4, [r3, #2236]
	ldr	r3, [r4, #96]
	cmp	r3, #0
	beq	.L289
	ldr	r5, [r4, #116]
	cmp	r5, #0
	bne	.L290
	mov	r3, #1
	add	r7, r4, #92
	mov	r6, r1
	mov	r0, r7
	str	r3, [r4, #116]
	bl	_raw_spin_lock_irqsave
	mov	r1, r0
	str	r4, [r6, #124]
	mov	r0, r7
	bl	_raw_spin_unlock_irqrestore
	mov	r0, r5
.L287:
	ldrd	r4, [sp]
	ldrd	r6, [sp, #8]
	ldr	r8, [sp, #16]
	add	sp, sp, #20
	ldr	pc, [sp], #4
.L290:
	mvn	r0, #15
	b	.L287
.L289:
	mvn	r0, #18
	b	.L287
	.fnend
	.size	ccid_ctrl_open, .-ccid_ctrl_open
	.align	2
	.syntax unified
	.arm
	.fpu softvfp
	.type	ccid_ctrl_release, %function
ccid_ctrl_release:
	.fnstart
	@ args = 0, pretend = 0, frame = 0
	@ frame_needed = 0, uses_anonymous_args = 0
	@ link register save eliminated.
	ldr	r2, [r1, #124]
	mov	r3, #0
	mov	r0, r3
	str	r3, [r2, #116]
	bx	lr
	.fnend
	.size	ccid_ctrl_release, .-ccid_ctrl_release
	.align	2
	.syntax unified
	.arm
	.fpu softvfp
	.type	f_midi_disable, %function
f_midi_disable:
	.fnstart
	@ args = 0, pretend = 0, frame = 0
	@ frame_needed = 0, uses_anonymous_args = 0
	.save {r4, lr}
	str	r4, [sp, #-8]!
	mov	r4, r0
	str	lr, [sp, #4]
	ldr	r0, [r0, #88]
	ldr	r3, [r0, #8]
	ldr	r3, [r3, #4]
	blx	r3
	ldr	r0, [r4, #92]
	ldr	r4, [sp]
	ldr	lr, [sp, #4]
	add	sp, sp, #8
	ldr	r3, [r0, #8]
	ldr	r3, [r3, #4]
	bx	r3
	.fnend
	.size	f_midi_disable, .-f_midi_disable
	.align	2
	.syntax unified
	.arm
	.fpu softvfp
	.type	f_midi_snd_free, %function
f_midi_snd_free:
	.fnstart
	@ args = 0, pretend = 0, frame = 0
	@ frame_needed = 0, uses_anonymous_args = 0
	@ link register save eliminated.
	mov	r0, #0
	bx	lr
	.fnend
	.size	f_midi_snd_free, .-f_midi_snd_free
	.align	2
	.syntax unified
	.arm
	.fpu softvfp
	.type	f_midi_in_open, %function
f_midi_in_open:
	.fnstart
	@ args = 0, pretend = 0, frame = 0
	@ frame_needed = 0, uses_anonymous_args = 0
	@ link register save eliminated.
	ldr	r3, [r0, #12]
	ldr	r2, [r0, #28]
	ldr	r2, [r2, #200]
	add	r3, r2, r3, lsl #2
	ldr	r1, [r3, #232]
	cmp	r1, #0
	beq	.L298
	str	r0, [r3, #104]
	ldr	r3, [r0, #12]
	mov	r1, #0
	mov	r0, r1
	add	r3, r3, #58
	ldr	r3, [r2, r3, lsl #2]
	strb	r1, [r3, #9]
	bx	lr
.L298:
	mvn	r0, #21
	bx	lr
	.fnend
	.size	f_midi_in_open, .-f_midi_in_open
	.align	2
	.syntax unified
	.arm
	.fpu softvfp
	.type	f_midi_out_open, %function
f_midi_out_open:
	.fnstart
	@ args = 0, pretend = 0, frame = 0
	@ frame_needed = 0, uses_anonymous_args = 0
	@ link register save eliminated.
	ldr	r3, [r0, #12]
	mov	r2, r0
	ldr	r1, [r0, #28]
	cmp	r3, #15
	ldr	r1, [r1, #200]
	addle	r3, r3, #42
	movle	r0, #0
	mvngt	r0, #21
	strle	r2, [r1, r3, lsl #2]
	bx	lr
	.fnend
	.size	f_midi_out_open, .-f_midi_out_open
	.align	2
	.syntax unified
	.arm
	.fpu softvfp
	.type	rndis_response_available, %function
rndis_response_available:
	.fnstart
	@ args = 0, pretend = 0, frame = 0
	@ frame_needed = 0, uses_anonymous_args = 0
	strd	r4, [sp, #-16]!
	.save {r4, r5, r6, lr}
	add	r5, r0, #176
	str	r6, [sp, #8]
	str	lr, [sp, #12]
	ldr	r1, [r0, #172]
	ldr	ip, [r1]
	.syntax divided
@ 61 "/home/pascua14/Desktop/s5-kernel/arch/arm/include/asm/atomic.h" 1
	dmb
@ 0 "" 2
@ 63 "/home/pascua14/Desktop/s5-kernel/arch/arm/include/asm/atomic.h" 1
	@ atomic_add_return
1:	ldrex	r3, [r5]
	add	r3, r3, #1
	strex	r2, r3, [r5]
	teq	r2, #0
	bne	1b
@ 0 "" 2
@ 73 "/home/pascua14/Desktop/s5-kernel/arch/arm/include/asm/atomic.h" 1
	dmb
@ 0 "" 2
	.arm
	.syntax unified
	cmp	r3, #1
	beq	.L313
.L302:
	ldrd	r4, [sp]
	ldr	r6, [sp, #8]
	add	sp, sp, #12
	ldr	pc, [sp], #4
.L313:
	ldr	r2, [r0, #168]
	ldr	r2, [r2]
	cmp	r2, #0
	beq	.L302
	mov	r4, r0
	mov	r0, #0
	str	r3, [ip]
	mov	r2, #32
	str	r0, [ip, #4]
	ldr	r0, [r4, #168]
	ldr	r3, [r0, #8]
	ldr	r3, [r3, #16]
	blx	r3
	cmp	r0, #0
	beq	.L302
	.syntax divided
@ 83 "/home/pascua14/Desktop/s5-kernel/arch/arm/include/asm/atomic.h" 1
	@ atomic_sub
1:	ldrex	r3, [r5]
	sub	r3, r3, #1
	strex	r2, r3, [r5]
	teq	r2, #0
	bne	1b
@ 0 "" 2
	.arm
	.syntax unified
	b	.L302
	.fnend
	.size	rndis_response_available, .-rndis_response_available
	.align	2
	.syntax unified
	.arm
	.fpu softvfp
	.type	rndis_response_complete, %function
rndis_response_complete:
	.fnstart
	@ args = 0, pretend = 0, frame = 0
	@ frame_needed = 0, uses_anonymous_args = 0
	strd	r4, [sp, #-16]!
	.save {r4, r5, r6, lr}
	ldr	r4, [r1, #32]
	str	r6, [sp, #8]
	str	lr, [sp, #12]
	ldr	r3, [r4, #20]
	cmp	r3, #0
	beq	.L314
	ldr	r3, [r3, #24]
	cmp	r3, #0
	beq	.L314
	ldr	r3, [r1, #44]
	cmn	r3, #108
	beq	.L319
	cmn	r3, #104
	beq	.L319
	ldr	r3, [r4, #168]
	cmp	r3, r0
	beq	.L337
.L314:
	ldrd	r4, [sp]
	ldr	r6, [sp, #8]
	add	sp, sp, #12
	ldr	pc, [sp], #4
.L319:
	mov	r3, #0
	str	r3, [r4, #176]
	b	.L314
.L337:
	add	r5, r4, #176
	.syntax divided
@ 99 "/home/pascua14/Desktop/s5-kernel/arch/arm/include/asm/atomic.h" 1
	dmb
@ 0 "" 2
@ 101 "/home/pascua14/Desktop/s5-kernel/arch/arm/include/asm/atomic.h" 1
	@ atomic_sub_return
1:	ldrex	r3, [r5]
	sub	r3, r3, #1
	strex	r2, r3, [r5]
	teq	r2, #0
	bne	1b
@ 0 "" 2
@ 111 "/home/pascua14/Desktop/s5-kernel/arch/arm/include/asm/atomic.h" 1
	dmb
@ 0 "" 2
	.arm
	.syntax unified
	cmp	r3, #0
	beq	.L314
	ldr	r0, [r4, #168]
	mov	r2, #32
	ldr	r3, [r0, #8]
	ldr	r3, [r3, #16]
	blx	r3
	cmp	r0, #0
	beq	.L314
	.syntax divided
@ 83 "/home/pascua14/Desktop/s5-kernel/arch/arm/include/asm/atomic.h" 1
	@ atomic_sub
1:	ldrex	r3, [r5]
	sub	r3, r3, #1
	strex	r2, r3, [r5]
	teq	r2, #0
	bne	1b
@ 0 "" 2
	.arm
	.syntax unified
	b	.L314
	.fnend
	.size	rndis_response_complete, .-rndis_response_complete
	.align	2
	.syntax unified
	.arm
	.fpu softvfp
	.type	ecm_qc_get_alt, %function
ecm_qc_get_alt:
	.fnstart
	@ args = 0, pretend = 0, frame = 0
	@ frame_needed = 0, uses_anonymous_args = 0
	@ link register save eliminated.
	ldrb	r3, [r0, #120]	@ zero_extendqisi2
	cmp	r3, r1
	beq	.L340
	ldr	r3, [r0, #88]
	ldr	r0, [r3]
	adds	r0, r0, #0
	movne	r0, #1
	bx	lr
.L340:
	mov	r0, #0
	bx	lr
	.fnend
	.size	ecm_qc_get_alt, .-ecm_qc_get_alt
	.align	2
	.syntax unified
	.arm
	.fpu softvfp
	.type	mbim_get_alt, %function
mbim_get_alt:
	.fnstart
	@ args = 0, pretend = 0, frame = 0
	@ frame_needed = 0, uses_anonymous_args = 0
	@ link register save eliminated.
	ldrb	r3, [r0, #196]	@ zero_extendqisi2
	cmp	r3, r1
	beq	.L343
	ldrb	r3, [r0, #197]	@ zero_extendqisi2
	cmp	r3, r1
	bne	.L344
	ldrb	r0, [r0, #198]	@ zero_extendqisi2
	bx	lr
.L343:
	mov	r0, #0
	bx	lr
.L344:
	mvn	r0, #21
	bx	lr
	.fnend
	.size	mbim_get_alt, .-mbim_get_alt
	.align	2
	.syntax unified
	.arm
	.fpu softvfp
	.type	ecm_get_alt, %function
ecm_get_alt:
	.fnstart
	@ args = 0, pretend = 0, frame = 0
	@ frame_needed = 0, uses_anonymous_args = 0
	@ link register save eliminated.
	ldrb	r3, [r0, #148]	@ zero_extendqisi2
	cmp	r3, r1
	beq	.L347
	ldr	r3, [r0, #88]
	ldr	r0, [r3]
	adds	r0, r0, #0
	movne	r0, #1
	bx	lr
.L347:
	mov	r0, #0
	bx	lr
	.fnend
	.size	ecm_get_alt, .-ecm_get_alt
	.align	2
	.syntax unified
	.arm
	.fpu softvfp
	.type	ueth_change_mtu, %function
ueth_change_mtu:
	.fnstart
	@ args = 0, pretend = 0, frame = 0
	@ frame_needed = 0, uses_anonymous_args = 0
	strd	r4, [sp, #-16]!
	.save {r4, r5, r6, lr}
	add	r5, r0, #1216
	mov	r4, r0
	mov	r0, r5
	str	r6, [sp, #8]
	mov	r6, r1
	str	lr, [sp, #12]
	bl	_raw_spin_lock_irqsave
	ldr	r3, [r4, #1220]
	mov	r1, r0
	cmp	r3, #0
	bne	.L350
	sub	r0, r6, #15
	movw	r2, #1499
	cmp	r0, r2
	bhi	.L351
	str	r6, [r4, #316]
	mov	r4, r3
.L349:
	mov	r0, r5
	bl	_raw_spin_unlock_irqrestore
	ldr	r6, [sp, #8]
	mov	r0, r4
	ldrd	r4, [sp]
	add	sp, sp, #12
	ldr	pc, [sp], #4
.L350:
	mvn	r4, #15
	b	.L349
.L351:
	mvn	r4, #33
	b	.L349
	.fnend
	.size	ueth_change_mtu, .-ueth_change_mtu
	.align	2
	.syntax unified
	.arm
	.fpu softvfp
	.type	prealloc, %function
prealloc:
	.fnstart
	@ args = 0, pretend = 0, frame = 0
	@ frame_needed = 0, uses_anonymous_args = 0
	cmp	r2, #0
	beq	.L376
	strd	r4, [sp, #-24]!
	.save {r4, r5, r6, r7, r8, lr}
	sub	r2, r2, #1
	mov	r4, r0
	strd	r6, [sp, #8]
	mov	r6, r1
	str	r8, [sp, #16]
	str	lr, [sp, #20]
	ldr	r3, [r0]
	cmp	r0, r3
	sub	r3, r3, #36
	bne	.L355
	b	.L379
.L358:
	cmn	r5, #1
	mov	r2, r5
	beq	.L380
.L355:
	ldr	r3, [r3, #36]
	sub	r5, r2, #1
	cmp	r4, r3
	sub	r3, r3, #36
	bne	.L358
	ldr	r3, [r6, #28]
	cmp	r2, #0
	ldrb	r7, [r3, #2]	@ zero_extendqisi2
	lsr	r7, r7, #7
	beq	.L359
.L363:
	movw	r2, #:lower16:tx_complete
	movw	r3, #:lower16:rx_complete
	cmp	r7, #0
	movt	r2, #:upper16:tx_complete
	movt	r3, #:upper16:rx_complete
	movne	r7, r2
	moveq	r7, r3
	b	.L362
.L360:
	str	r7, [r0, #28]
	ldr	r2, [r4]
	cmp	r5, #0
	mov	r5, r1
	str	r3, [r2, #4]
	str	r2, [r0, #36]
	str	r4, [r0, #40]
	str	r3, [r4]
	beq	.L359
.L362:
	ldr	r3, [r6, #8]
	mov	r1, #32
	mov	r0, r6
	ldr	r3, [r3, #8]
	blx	r3
	cmp	r0, #0
	sub	r1, r5, #1
	add	r3, r0, #36
	bne	.L360
	ldr	r3, [r4]
	cmp	r4, r3
	beq	.L354
.L359:
	mov	r0, #0
.L353:
	ldrd	r4, [sp]
	ldrd	r6, [sp, #8]
	ldr	r8, [sp, #16]
	add	sp, sp, #20
	ldr	pc, [sp], #4
.L380:
	mov	r8, #256
	mov	r7, #512
.L357:
	ldr	r5, [r3, #36]
	mov	r1, r3
	mov	r0, r6
	ldr	r2, [r3, #40]
	str	r2, [r5, #4]
	str	r5, [r2]
	str	r8, [r3, #36]
	str	r7, [r3, #40]
	ldr	r3, [r6, #8]
	ldr	r3, [r3, #12]
	blx	r3
	cmp	r4, r5
	sub	r3, r5, #36
	bne	.L357
	b	.L359
.L379:
	ldr	r3, [r1, #28]
	mov	r5, r2
	ldrb	r7, [r3, #2]	@ zero_extendqisi2
	lsr	r7, r7, #7
	b	.L363
.L354:
	mvn	r0, #11
	b	.L353
.L376:
	mvn	r0, #11
	bx	lr
	.fnend
	.size	prealloc, .-prealloc
	.align	2
	.syntax unified
	.arm
	.fpu softvfp
	.type	ueth_qc_change_mtu, %function
ueth_qc_change_mtu:
	.fnstart
	@ args = 0, pretend = 0, frame = 0
	@ frame_needed = 0, uses_anonymous_args = 0
	strd	r4, [sp, #-16]!
	.save {r4, r5, r6, lr}
	add	r5, r0, #1216
	mov	r4, r0
	mov	r0, r5
	str	r6, [sp, #8]
	mov	r6, r1
	str	lr, [sp, #12]
	bl	_raw_spin_lock_irqsave
	ldr	r3, [r4, #1220]
	mov	r1, r0
	cmp	r3, #0
	bne	.L383
	sub	r0, r6, #15
	movw	r2, #1499
	cmp	r0, r2
	bhi	.L384
	str	r6, [r4, #316]
	mov	r4, r3
.L382:
	mov	r0, r5
	bl	_raw_spin_unlock_irqrestore
	ldr	r6, [sp, #8]
	mov	r0, r4
	ldrd	r4, [sp]
	add	sp, sp, #12
	ldr	pc, [sp], #4
.L383:
	mvn	r4, #15
	b	.L382
.L384:
	mvn	r4, #33
	b	.L382
	.fnend
	.size	ueth_qc_change_mtu, .-ueth_qc_change_mtu
	.align	2
	.syntax unified
	.arm
	.fpu softvfp
	.type	eth_qc_start_xmit, %function
eth_qc_start_xmit:
	.fnstart
	@ args = 0, pretend = 0, frame = 0
	@ frame_needed = 0, uses_anonymous_args = 0
	@ link register save eliminated.
	mov	r0, #0
	bx	lr
	.fnend
	.size	eth_qc_start_xmit, .-eth_qc_start_xmit
	.align	2
	.syntax unified
	.arm
	.fpu softvfp
	.type	f_audio_get_alt, %function
f_audio_get_alt:
	.fnstart
	@ args = 0, pretend = 0, frame = 0
	@ frame_needed = 0, uses_anonymous_args = 0
	@ link register save eliminated.
	movw	r3, #:lower16:.LANCHOR0
	movt	r3, #:upper16:.LANCHOR0
	ldrb	r2, [r3, #16]	@ zero_extendqisi2
	cmp	r2, r1
	beq	.L391
	ldrb	r3, [r3, #17]	@ zero_extendqisi2
	cmp	r3, r1
	ldrbeq	r0, [r0, #249]	@ zero_extendqisi2
	movne	r0, #0
	bx	lr
.L391:
	ldrb	r0, [r0, #248]	@ zero_extendqisi2
	bx	lr
	.fnend
	.size	f_audio_get_alt, .-f_audio_get_alt
	.align	2
	.syntax unified
	.arm
	.fpu softvfp
	.type	f_audio_disable, %function
f_audio_disable:
	.fnstart
	@ args = 0, pretend = 0, frame = 0
	@ frame_needed = 0, uses_anonymous_args = 0
	@ link register save eliminated.
	movw	r3, #:lower16:.LANCHOR1
	mov	r2, #0
	movt	r3, #:upper16:.LANCHOR1
	strb	r2, [r3, #2240]
	bx	lr
	.fnend
	.size	f_audio_disable, .-f_audio_disable
	.align	2
	.syntax unified
	.arm
	.fpu softvfp
	.type	generic_set_cmd, %function
generic_set_cmd:
	.fnstart
	@ args = 0, pretend = 0, frame = 0
	@ frame_needed = 0, uses_anonymous_args = 0
	@ link register save eliminated.
	add	r1, r1, #4
	str	r2, [r0, r1, lsl #2]
	mov	r0, #0
	bx	lr
	.fnend
	.size	generic_set_cmd, .-generic_set_cmd
	.align	2
	.syntax unified
	.arm
	.fpu softvfp
	.type	generic_get_cmd, %function
generic_get_cmd:
	.fnstart
	@ args = 0, pretend = 0, frame = 0
	@ frame_needed = 0, uses_anonymous_args = 0
	@ link register save eliminated.
	add	r1, r1, #4
	ldr	r0, [r0, r1, lsl #2]
	bx	lr
	.fnend
	.size	generic_get_cmd, .-generic_get_cmd
	.align	2
	.syntax unified
	.arm
	.fpu softvfp
	.type	conn_gadget_out_max_packet_size_store, %function
conn_gadget_out_max_packet_size_store:
	.fnstart
	@ args = 0, pretend = 0, frame = 0
	@ frame_needed = 0, uses_anonymous_args = 0
	@ link register save eliminated.
	mov	r0, r3
	bx	lr
	.fnend
	.size	conn_gadget_out_max_packet_size_store, .-conn_gadget_out_max_packet_size_store
	.align	2
	.syntax unified
	.arm
	.fpu softvfp
	.type	ncm_notify_complete, %function
ncm_notify_complete:
	.fnstart
	@ args = 0, pretend = 0, frame = 0
	@ frame_needed = 0, uses_anonymous_args = 0
	strd	r4, [sp, #-24]!
	.save {r4, r5, r6, r7, r8, lr}
	mov	r4, r1
	strd	r6, [sp, #8]
	str	r8, [sp, #16]
	str	lr, [sp, #20]
	ldr	r5, [r1, #32]
	add	r6, r5, #188
	mov	r0, r6
	bl	_raw_spin_lock
	ldr	r3, [r4, #44]
	cmn	r3, #108
	beq	.L398
	cmn	r3, #104
	beq	.L398
.L397:
	cmp	r4, #0
	str	r4, [r5, #168]
	beq	.L400
	ldrb	r2, [r5, #172]	@ zero_extendqisi2
	ldr	r3, [r4]
	cmp	r2, #1
	beq	.L402
	bcc	.L400
	cmp	r2, #2
	bne	.L401
	ldr	r0, [r5, #20]
	mov	r2, #0
	mov	r1, #8
	mov	lr, #42
	mov	ip, #16
	ldr	r0, [r0, #24]
	strb	lr, [r3, #1]
	strb	r2, [r3, #2]
	strb	r2, [r3, #3]
	strb	r1, [r3, #6]
	strb	r2, [r3, #7]
	ldr	r1, [r4]
	str	ip, [r4, #4]
	ldr	r2, [r0]
	ldr	r0, [r2, #20]
	cmp	r0, #2
	movls	r2, #28672
	movtls	r2, 148
	bls	.L404
	ldr	ip, [r2, #16]
	mov	r0, #0
	mov	r2, #28672
	movt	r0, 6500
	movt	r2, 148
	cmp	ip, #3
	moveq	r2, r0
.L404:
	mov	r0, #1
	str	r2, [r1, #8]
	str	r2, [r1, #12]
	strb	r0, [r5, #172]
.L401:
	mvn	r1, #94
	mov	r2, #0
	mov	r0, r6
	strb	r1, [r3]
	ldrb	r1, [r5, #148]	@ zero_extendqisi2
	strh	r1, [r3, #4]	@ unaligned
	str	r2, [r5, #168]
	bl	_raw_spin_unlock
	ldr	r0, [r5, #164]
	mov	r2, #32
	mov	r1, r4
	ldr	r3, [r0, #8]
	ldr	r3, [r3, #16]
	blx	r3
	mov	r7, r0
	mov	r0, r6
	bl	_raw_spin_lock
	cmp	r7, #0
	strlt	r4, [r5, #168]
.L400:
	mov	r0, r6
	ldrd	r4, [sp]
	ldrd	r6, [sp, #8]
	ldr	r8, [sp, #16]
	ldr	lr, [sp, #20]
	add	sp, sp, #24
	b	_raw_spin_unlock
.L398:
	mov	r3, #0
	strb	r3, [r5, #172]
	b	.L397
.L402:
	mov	r2, #0
	mov	r1, #8
	strb	r2, [r3, #1]
	ldrb	r0, [r5, #173]	@ zero_extendqisi2
	strh	r0, [r3, #2]	@ unaligned
	strb	r2, [r3, #6]
	strb	r2, [r3, #7]
	str	r1, [r4, #4]
	strb	r2, [r5, #172]
	b	.L401
	.fnend
	.size	ncm_notify_complete, .-ncm_notify_complete
	.align	2
	.syntax unified
	.arm
	.fpu softvfp
	.type	ncm_ep0out_complete, %function
ncm_ep0out_complete:
	.fnstart
	@ args = 0, pretend = 0, frame = 0
	@ frame_needed = 0, uses_anonymous_args = 0
	@ link register save eliminated.
	mov	r2, #0
	ldr	ip, [r1, #32]
	ldr	r3, [r1, #44]
	str	r2, [r1, #32]
	cmp	r3, r2
	beq	.L419
.L416:
	ldr	r3, [r0, #8]
	mov	r1, #1
	ldr	r3, [r3, #24]
	bx	r3
.L419:
	ldr	r3, [r1, #4]
	ldr	r2, [r1, #48]
	cmp	r2, r3
	bne	.L416
	ldr	r3, [r1]
	ldr	r3, [r3]	@ unaligned
	cmp	r3, #2048
	bcc	.L416
	movw	r2, #:lower16:.LANCHOR0
	movt	r2, #:upper16:.LANCHOR0
	ldr	r2, [r2, #24]
	cmp	r2, r3
	bcc	.L416
	str	r3, [ip, #112]
	bx	lr
	.fnend
	.size	ncm_ep0out_complete, .-ncm_ep0out_complete
	.align	2
	.syntax unified
	.arm
	.fpu softvfp
	.type	ncm_get_alt, %function
ncm_get_alt:
	.fnstart
	@ args = 0, pretend = 0, frame = 0
	@ frame_needed = 0, uses_anonymous_args = 0
	@ link register save eliminated.
	ldrb	r3, [r0, #148]	@ zero_extendqisi2
	cmp	r3, r1
	beq	.L422
	ldr	r3, [r0, #88]
	ldr	r0, [r3]
	adds	r0, r0, #0
	movne	r0, #1
	bx	lr
.L422:
	mov	r0, #0
	bx	lr
	.fnend
	.size	ncm_get_alt, .-ncm_get_alt
	.align	2
	.syntax unified
	.arm
	.fpu softvfp
	.type	audio_source_function_unbind_config, %function
audio_source_function_unbind_config:
	.fnstart
	@ args = 0, pretend = 0, frame = 0
	@ frame_needed = 0, uses_anonymous_args = 0
	@ link register save eliminated.
	ldr	r3, [r0, #4]
	mvn	r2, #0
	str	r2, [r3]
	str	r2, [r3, #4]
	bx	lr
	.fnend
	.size	audio_source_function_unbind_config, .-audio_source_function_unbind_config
	.align	2
	.syntax unified
	.arm
	.fpu softvfp
	.type	uasp_function_bind_config, %function
uasp_function_bind_config:
	.fnstart
	@ args = 0, pretend = 0, frame = 0
	@ frame_needed = 0, uses_anonymous_args = 0
	@ link register save eliminated.
	mvn	r0, #18
	bx	lr
	.fnend
	.size	uasp_function_bind_config, .-uasp_function_bind_config
	.align	2
	.syntax unified
	.arm
	.fpu softvfp
	.type	android_unbind_config, %function
android_unbind_config:
	.fnstart
	@ args = 0, pretend = 0, frame = 0
	@ frame_needed = 0, uses_anonymous_args = 0
	movw	r3, #:lower16:.LANCHOR1
	strd	r4, [sp, #-16]!
	.save {r4, r5, r6, lr}
	ldr	ip, .L439
	movt	r3, #:upper16:.LANCHOR1
	str	r6, [sp, #8]
	mov	r5, r0
	str	lr, [sp, #12]
	ldr	r3, [r3, #2244]
	ldr	r1, [r0, #24]
	cmp	r3, ip
	beq	.L426
	sub	r2, r3, #424
	ldr	r3, [r3, #-416]
	cmp	r1, r3
	bne	.L427
	b	.L426
.L428:
	ldr	r3, [r3, #-416]
	cmp	r1, r3
	beq	.L426
.L427:
	ldr	r3, [r2, #424]
	cmp	r3, ip
	sub	r2, r3, #424
	bne	.L428
.L426:
	ldr	r3, [r1]
	mov	r6, r5
	ldrb	r2, [r3, #386]	@ zero_extendqisi2
	cmp	r2, #0
	movne	r2, #0
	strbne	r2, [r3, #386]
	ldr	r4, [r6, #112]!
	cmp	r6, r4
	sub	r4, r4, #4
	beq	.L425
.L430:
	ldr	r3, [r4]
	mov	r1, r5
	mov	r0, r3
	ldr	r3, [r3, #44]
	cmp	r3, #0
	beq	.L432
	blx	r3
	ldr	r4, [r4, #4]
	cmp	r6, r4
	sub	r4, r4, #4
	bne	.L430
.L425:
	ldrd	r4, [sp]
	ldr	r6, [sp, #8]
	add	sp, sp, #12
	ldr	pc, [sp], #4
.L432:
	ldr	r4, [r4, #4]
	cmp	r6, r4
	sub	r4, r4, #4
	bne	.L430
	b	.L425
.L440:
	.align	2
.L439:
	.word	.LANCHOR1+2244
	.fnend
	.size	android_unbind_config, .-android_unbind_config
	.align	2
	.syntax unified
	.arm
	.fpu softvfp
	.type	audio_set_endpoint_complete, %function
audio_set_endpoint_complete:
	.fnstart
	@ args = 0, pretend = 0, frame = 8
	@ frame_needed = 0, uses_anonymous_args = 0
	strd	r4, [sp, #-16]!
	.save {r4, r5, r6, lr}
	mov	r3, #0
	str	r6, [sp, #8]
	str	lr, [sp, #12]
	.pad #8
	sub	sp, sp, #8
	ldr	r5, [r1, #32]
	ldr	r4, [r1, #44]
	str	r3, [sp, #4]
	cmp	r4, r3
	bne	.L441
	ldr	r6, [r5, #272]
	cmp	r6, r3
	beq	.L441
	ldm	r1, {r1, r2}
	add	r0, sp, #4
	bl	memcpy
	ldr	r2, [sp, #4]
	mov	r0, r6
	ldrb	r1, [r5, #268]	@ zero_extendqisi2
	ldr	r3, [r6, #36]
	blx	r3
	str	r4, [r5, #272]
.L441:
	add	sp, sp, #8
	@ sp needed
	ldrd	r4, [sp]
	ldr	r6, [sp, #8]
	add	sp, sp, #12
	ldr	pc, [sp], #4
	.fnend
	.size	audio_set_endpoint_complete, .-audio_set_endpoint_complete
	.align	2
	.syntax unified
	.arm
	.fpu softvfp
	.type	midi_function_init, %function
midi_function_init:
	.fnstart
	@ args = 0, pretend = 0, frame = 0
	@ frame_needed = 0, uses_anonymous_args = 0
	movw	r3, #:lower16:kmalloc_caches
	.save {r4, lr}
	str	r4, [sp, #-8]!
	movt	r3, #:upper16:kmalloc_caches
	str	lr, [sp, #4]
	ldr	r3, [r3, #24]
	cmp	r3, #0
	beq	.L453
	mov	r4, r0
	mov	r2, #8
	mov	r0, r3
	movw	r1, #32976
	bl	kmem_cache_alloc_trace
	cmp	r0, #0
	mov	r3, r0
	str	r0, [r4, #4]
	beq	.L451
.L449:
	mvn	r2, #0
	mov	r0, #0
	str	r2, [r3]
	str	r2, [r3, #4]
.L447:
	ldr	r4, [sp]
	add	sp, sp, #4
	ldr	pc, [sp], #4
.L453:
	mov	r2, #16
	mov	r3, r2
	str	r2, [r0, #4]
	b	.L449
.L451:
	mvn	r0, #11
	b	.L447
	.fnend
	.size	midi_function_init, .-midi_function_init
	.align	2
	.syntax unified
	.arm
	.fpu softvfp
	.type	ecm_function_init, %function
ecm_function_init:
	.fnstart
	@ args = 0, pretend = 0, frame = 0
	@ frame_needed = 0, uses_anonymous_args = 0
	movw	r3, #:lower16:kmalloc_caches
	movt	r3, #:upper16:kmalloc_caches
	ldr	r3, [r3, #24]
	cmp	r3, #0
	beq	.L461
	.save {r4, lr}
	str	r4, [sp, #-8]!
	mov	r2, #6
	mov	r4, r0
	movw	r1, #32976
	mov	r0, r3
	str	lr, [sp, #4]
	bl	kmem_cache_alloc_trace
	cmp	r0, #0
	str	r0, [r4, #4]
	mvneq	r3, #11
	movne	r3, #0
	ldr	r4, [sp]
	add	sp, sp, #4
	mov	r0, r3
	ldr	pc, [sp], #4
.L461:
	mov	r2, #16
	str	r2, [r0, #4]
	mov	r0, r3
	bx	lr
	.fnend
	.size	ecm_function_init, .-ecm_function_init
	.align	2
	.syntax unified
	.arm
	.fpu softvfp
	.type	rndis_function_init, %function
rndis_function_init:
	.fnstart
	@ args = 0, pretend = 0, frame = 0
	@ frame_needed = 0, uses_anonymous_args = 0
	movw	r3, #:lower16:kmalloc_caches
	movt	r3, #:upper16:kmalloc_caches
	ldr	r3, [r3, #36]
	cmp	r3, #0
	beq	.L469
	.save {r4, lr}
	str	r4, [sp, #-8]!
	mov	r2, #272
	mov	r4, r0
	movw	r1, #32976
	mov	r0, r3
	str	lr, [sp, #4]
	bl	kmem_cache_alloc_trace
	cmp	r0, #0
	str	r0, [r4, #4]
	mvneq	r3, #11
	movne	r3, #0
	ldr	r4, [sp]
	add	sp, sp, #4
	mov	r0, r3
	ldr	pc, [sp], #4
.L469:
	mov	r2, #16
	str	r2, [r0, #4]
	mov	r0, r3
	bx	lr
	.fnend
	.size	rndis_function_init, .-rndis_function_init
	.align	2
	.syntax unified
	.arm
	.fpu softvfp
	.type	audio_source_function_init, %function
audio_source_function_init:
	.fnstart
	@ args = 0, pretend = 0, frame = 0
	@ frame_needed = 0, uses_anonymous_args = 0
	movw	r3, #:lower16:kmalloc_caches
	.save {r4, lr}
	str	r4, [sp, #-8]!
	mov	r4, r0
	movt	r3, #:upper16:kmalloc_caches
	str	lr, [sp, #4]
	ldr	r0, [r3, #24]
	cmp	r0, #0
	beq	.L473
	mov	r2, #8
	movw	r1, #32976
	bl	kmem_cache_alloc_trace
	subs	r3, r0, #0
	beq	.L476
.L471:
	mvn	r2, #0
	mov	r0, #0
	str	r2, [r3]
	str	r2, [r3, #4]
	str	r3, [r4, #4]
.L470:
	ldr	r4, [sp]
	add	sp, sp, #4
	ldr	pc, [sp], #4
.L473:
	mov	r3, #16
	b	.L471
.L476:
	mvn	r0, #11
	b	.L470
	.fnend
	.size	audio_source_function_init, .-audio_source_function_init
	.align	2
	.syntax unified
	.arm
	.fpu softvfp
	.type	adb_request_new, %function
adb_request_new:
	.fnstart
	@ args = 0, pretend = 0, frame = 0
	@ frame_needed = 0, uses_anonymous_args = 0
	strd	r4, [sp, #-16]!
	.save {r4, r5, r6, lr}
	mov	r5, r0
	str	r6, [sp, #8]
	mov	r6, r1
	mov	r1, #208
	str	lr, [sp, #12]
	ldr	r3, [r0, #8]
	ldr	r3, [r3, #8]
	blx	r3
	subs	r4, r0, #0
	beq	.L477
	mov	r0, r6
	mov	r1, #208
	bl	__kmalloc
	cmp	r0, #0
	mov	r3, r0
	str	r0, [r4]
	beq	.L483
.L477:
	mov	r0, r4
	ldrd	r4, [sp]
	ldr	r6, [sp, #8]
	add	sp, sp, #12
	ldr	pc, [sp], #4
.L483:
	ldr	r2, [r5, #8]
	mov	r1, r4
	mov	r0, r5
	mov	r4, r3
	ldr	r3, [r2, #12]
	blx	r3
	b	.L477
	.fnend
	.size	adb_request_new, .-adb_request_new
	.set	conn_gadget_request_new,adb_request_new
	.set	mtp_request_new,adb_request_new
	.align	2
	.syntax unified
	.arm
	.fpu softvfp
	.type	midi_alloc_ep_req, %function
midi_alloc_ep_req:
	.fnstart
	@ args = 0, pretend = 0, frame = 0
	@ frame_needed = 0, uses_anonymous_args = 0
	strd	r4, [sp, #-16]!
	.save {r4, r5, r6, lr}
	mov	r5, r1
	mov	r1, #32
	str	r6, [sp, #8]
	mov	r6, r0
	str	lr, [sp, #12]
	ldr	r3, [r0, #8]
	ldr	r3, [r3, #8]
	blx	r3
	subs	r4, r0, #0
	beq	.L484
	mov	r0, r5
	mov	r1, #32
	str	r5, [r4, #4]
	bl	__kmalloc
	cmp	r0, #0
	mov	r3, r0
	str	r0, [r4]
	beq	.L490
.L484:
	mov	r0, r4
	ldrd	r4, [sp]
	ldr	r6, [sp, #8]
	add	sp, sp, #12
	ldr	pc, [sp], #4
.L490:
	ldr	r2, [r6, #8]
	mov	r1, r4
	mov	r0, r6
	mov	r4, r3
	ldr	r3, [r2, #12]
	blx	r3
	b	.L484
	.fnend
	.size	midi_alloc_ep_req, .-midi_alloc_ep_req
	.align	2
	.syntax unified
	.arm
	.fpu softvfp
	.type	ccid_function_unbind, %function
ccid_function_unbind:
	.fnstart
	@ args = 0, pretend = 0, frame = 0
	@ frame_needed = 0, uses_anonymous_args = 0
	.save {r4, lr}
	str	r4, [sp, #-8]!
	mov	r4, r1
	str	lr, [sp, #4]
	ldr	r3, [r0, #24]
	ldr	r3, [r3]
	ldr	r3, [r3, #20]
	cmp	r3, #2
	bls	.L492
	ldr	r0, [r1, #8]
	bl	kfree
.L492:
	ldr	r0, [r4, #16]
	ldr	r4, [sp]
	ldr	lr, [sp, #4]
	add	sp, sp, #8
	b	kfree
	.fnend
	.size	ccid_function_unbind, .-ccid_function_unbind
	.align	2
	.syntax unified
	.arm
	.fpu softvfp
	.type	rmnet_smd_free_buf, %function
rmnet_smd_free_buf:
	.fnstart
	@ args = 0, pretend = 0, frame = 0
	@ frame_needed = 0, uses_anonymous_args = 0
	mov	r3, #0
	strd	r4, [sp, #-32]!
	.save {r4, r5, r6, r7, r8, r9, r10, lr}
	mov	r4, r0
	strd	r6, [sp, #8]
	mov	r7, r0
	strd	r8, [sp, #16]
	str	r10, [sp, #24]
	str	lr, [sp, #28]
	str	r3, [r0, #424]
	str	r3, [r0, #428]
	str	r3, [r0, #432]
	str	r3, [r0, #436]
	str	r3, [r0, #440]
	str	r3, [r0, #444]
	str	r3, [r0, #448]
	str	r3, [r0, #452]
	ldr	r3, [r7, #140]!
	cmp	r3, r7
	ldr	r2, [r3]
	beq	.L495
	mov	r6, r2
	mov	r9, #256
	mov	r8, #512
	b	.L496
.L503:
	mov	r6, r2
.L496:
	ldr	r1, [r3, #4]
	mov	r5, r3
	str	r1, [r2, #4]
	str	r2, [r1]
	str	r9, [r3]
	str	r8, [r3, #4]
	ldr	r10, [r4, #88]
	ldr	r0, [r5, #-36]!
	bl	kfree
	ldr	r3, [r10, #8]
	mov	r0, r10
	mov	r1, r5
	ldr	r3, [r3, #12]
	blx	r3
	cmp	r7, r6
	mov	r3, r6
	ldr	r2, [r6]
	bne	.L503
.L495:
	mov	r7, r4
	ldr	r3, [r7, #148]!
	cmp	r3, r7
	ldr	r2, [r3]
	beq	.L497
	mov	r6, r2
	mov	r9, #256
	mov	r8, #512
	b	.L498
.L504:
	mov	r6, r2
.L498:
	ldr	r1, [r3, #4]
	mov	r5, r3
	str	r1, [r2, #4]
	str	r2, [r1]
	str	r9, [r3]
	str	r8, [r3, #4]
	ldr	r10, [r4, #92]
	ldr	r0, [r5, #-36]!
	bl	kfree
	ldr	r3, [r10, #8]
	mov	r0, r10
	mov	r1, r5
	ldr	r3, [r3, #12]
	blx	r3
	cmp	r7, r6
	mov	r3, r6
	ldr	r2, [r6]
	bne	.L504
.L497:
	mov	r7, r4
	ldr	r3, [r7, #108]!
	cmp	r3, r7
	ldr	r2, [r3]
	beq	.L499
	mov	r6, r2
	mov	r9, #256
	mov	r8, #512
	b	.L500
.L505:
	mov	r6, r2
.L500:
	ldr	r1, [r3, #4]
	mov	r5, r3
	str	r1, [r2, #4]
	str	r2, [r1]
	str	r9, [r3]
	str	r8, [r3, #4]
	ldr	r0, [r5, #-8]!
	bl	kfree
	mov	r0, r5
	bl	kfree
	cmp	r7, r6
	mov	r3, r6
	ldr	r2, [r6]
	bne	.L505
.L499:
	mov	r7, r4
	ldr	r3, [r7, #116]!
	cmp	r3, r7
	ldr	r2, [r3]
	beq	.L501
	mov	r6, r2
	mov	r9, #256
	mov	r8, #512
	b	.L502
.L506:
	mov	r6, r2
.L502:
	ldr	r1, [r3, #4]
	mov	r5, r3
	str	r1, [r2, #4]
	str	r2, [r1]
	str	r9, [r3]
	str	r8, [r3, #4]
	ldr	r0, [r5, #-8]!
	bl	kfree
	mov	r0, r5
	bl	kfree
	cmp	r7, r6
	mov	r3, r6
	ldr	r2, [r6]
	bne	.L506
.L501:
	ldrd	r4, [r4, #96]
	ldr	r0, [r5]
	bl	kfree
	ldr	r3, [r4, #8]
	mov	r1, r5
	mov	r0, r4
	ldrd	r4, [sp]
	ldrd	r6, [sp, #8]
	ldrd	r8, [sp, #16]
	ldr	r10, [sp, #24]
	ldr	lr, [sp, #28]
	add	sp, sp, #32
	ldr	r3, [r3, #12]
	bx	r3	@ indirect register sibling call
	.fnend
	.size	rmnet_smd_free_buf, .-rmnet_smd_free_buf
	.align	2
	.syntax unified
	.arm
	.fpu softvfp
	.type	ghsuart_ctrl_receive, %function
ghsuart_ctrl_receive:
	.fnstart
	@ args = 0, pretend = 0, frame = 0
	@ frame_needed = 0, uses_anonymous_args = 0
	strd	r4, [sp, #-16]!
	.save {r4, r5, r6, lr}
	subs	r5, r0, #0
	str	r6, [sp, #8]
	moveq	r4, r5
	mov	r6, r1
	str	lr, [sp, #12]
	beq	.L509
	ldr	r3, [r5, #68]
	cmp	r3, #0
	beq	.L511
	ldr	r0, [r5, #12]
	blx	r3
	ldr	r3, [r5, #100]
	mov	r4, r0
	add	r3, r3, #1
	str	r3, [r5, #100]
.L509:
	mov	r0, r6
	bl	kfree
	ldr	r6, [sp, #8]
	mov	r0, r4
	ldrd	r4, [sp]
	add	sp, sp, #12
	ldr	pc, [sp], #4
.L511:
	mov	r4, r3
	b	.L509
	.fnend
	.size	ghsuart_ctrl_receive, .-ghsuart_ctrl_receive
	.align	2
	.syntax unified
	.arm
	.fpu softvfp
	.type	ecm_function_cleanup, %function
ecm_function_cleanup:
	.fnstart
	@ args = 0, pretend = 0, frame = 0
	@ frame_needed = 0, uses_anonymous_args = 0
	.save {r4, lr}
	str	r4, [sp, #-8]!
	mov	r4, r0
	str	lr, [sp, #4]
	ldr	r0, [r0, #4]
	bl	kfree
	mov	r3, #0
	str	r3, [r4, #4]
	ldr	r4, [sp]
	add	sp, sp, #4
	ldr	pc, [sp], #4
	.fnend
	.size	ecm_function_cleanup, .-ecm_function_cleanup
	.align	2
	.syntax unified
	.arm
	.fpu softvfp
	.type	midi_function_cleanup, %function
midi_function_cleanup:
	.fnstart
	@ args = 0, pretend = 0, frame = 0
	@ frame_needed = 0, uses_anonymous_args = 0
	@ link register save eliminated.
	ldr	r0, [r0, #4]
	b	kfree
	.fnend
	.size	midi_function_cleanup, .-midi_function_cleanup
	.align	2
	.syntax unified
	.arm
	.fpu softvfp
	.type	frmnet_unbind, %function
frmnet_unbind:
	.fnstart
	@ args = 0, pretend = 0, frame = 0
	@ frame_needed = 0, uses_anonymous_args = 0
	strd	r4, [sp, #-16]!
	.save {r4, r5, r6, lr}
	mov	r4, r1
	str	r6, [sp, #8]
	str	lr, [sp, #12]
	ldr	r3, [r0, #24]
	ldr	r3, [r3]
	ldr	r3, [r3, #20]
	cmp	r3, #4
	bhi	.L520
.L517:
	cmp	r3, #2
	bls	.L518
	ldr	r0, [r4, #8]
	bl	kfree
.L518:
	ldr	r0, [r4, #16]
	bl	kfree
	ldr	r5, [r4, #136]
	ldr	r6, [r4, #140]
	ldr	r0, [r6]
	bl	kfree
	ldr	r3, [r5, #8]
	mov	r0, r5
	mov	r1, r6
	ldr	r3, [r3, #12]
	blx	r3
	ldr	r6, [sp, #8]
	ldr	r0, [r4]
	ldrd	r4, [sp]
	ldr	lr, [sp, #12]
	add	sp, sp, #16
	b	kfree
.L520:
	mov	r5, r0
	ldr	r0, [r1, #12]
	bl	kfree
	ldr	r3, [r5, #24]
	ldr	r3, [r3]
	ldr	r3, [r3, #20]
	b	.L517
	.fnend
	.size	frmnet_unbind, .-frmnet_unbind
	.align	2
	.syntax unified
	.arm
	.fpu softvfp
	.type	gs_start_rx, %function
gs_start_rx:
	.fnstart
	@ args = 0, pretend = 0, frame = 0
	@ frame_needed = 0, uses_anonymous_args = 0
	strd	r4, [sp, #-36]!
	.save {r4, r5, r6, r7, r8, r9, r10, fp, lr}
	strd	r6, [sp, #8]
	strd	r8, [sp, #16]
	add	r8, r0, #32
	strd	r10, [sp, #24]
	str	lr, [sp, #32]
	ldr	r1, [r0, #4]
	.pad #4
	sub	sp, sp, #4
	ldr	r9, [r0, #32]
	ldr	r2, [r0, #40]
	ldr	r5, [r1, #92]
	cmp	r8, r9
	beq	.L522
	ldr	r1, [r0, #8]
	cmp	r1, #0
	beq	.L522
	cmp	r2, #7
	bgt	.L522
	mov	r4, r0
	mov	fp, #256
	mov	r10, #512
	b	.L523
.L524:
	cmp	r7, #0
	ldr	r1, [r4, #32]
	bne	.L534
	ldr	r2, [r4, #40]
	cmp	r8, r1
	mov	r9, r1
	add	r2, r2, #1
	str	r2, [r4, #40]
	beq	.L522
	ldr	r1, [r4, #8]
	cmp	r1, #0
	beq	.L522
	cmp	r2, #7
	bgt	.L522
.L523:
	ldm	r9, {r1, r2}
	mov	r3, #4096
	mov	r0, r4
	sub	r6, r9, #36
	str	r2, [r1, #4]
	str	r1, [r2]
	str	r3, [r9, #-32]
	str	fp, [r9]
	str	r10, [r9, #4]
	bl	_raw_spin_unlock
	ldr	ip, [r5, #8]
	mov	r2, #32
	mov	r1, r6
	mov	r0, r5
	ldr	r7, [ip, #16]
	blx	r7
	mov	r7, r0
	mov	r0, r4
	bl	_raw_spin_lock
	ldr	r2, [r4, #4]
	cmp	r2, #0
	bne	.L524
	ldr	r0, [r9, #-36]
	bl	kfree
	ldr	r3, [r5, #8]
	mov	r1, r6
	mov	r0, r5
	ldr	r3, [r3, #12]
	blx	r3
	ldr	r2, [r4, #40]
.L522:
	mov	r0, r2
	add	sp, sp, #4
	@ sp needed
	ldrd	r4, [sp]
	ldrd	r6, [sp, #8]
	ldrd	r8, [sp, #16]
	ldrd	r10, [sp, #24]
	add	sp, sp, #32
	ldr	pc, [sp], #4
.L534:
	str	r9, [r1, #4]
	stm	r9, {r1, r8}
	ldr	r2, [r4, #40]
	str	r9, [r4, #32]
	b	.L522
	.fnend
	.size	gs_start_rx, .-gs_start_rx
	.align	2
	.syntax unified
	.arm
	.fpu softvfp
	.type	rmnet_smd_start_rx, %function
rmnet_smd_start_rx:
	.fnstart
	@ args = 0, pretend = 0, frame = 8
	@ frame_needed = 0, uses_anonymous_args = 0
	strd	r4, [sp, #-36]!
	.save {r4, r5, r6, r7, r8, r9, r10, fp, lr}
	mov	r5, r0
	strd	r6, [sp, #8]
	add	r6, r0, #164
	add	r7, r0, #148
	strd	r8, [sp, #16]
	mov	r9, #256
	mov	r8, #512
	strd	r10, [sp, #24]
	str	lr, [sp, #32]
	ldr	r3, [r0, #84]
	.pad #12
	sub	sp, sp, #12
	mov	r0, r6
	str	r3, [sp, #4]
	bl	_raw_spin_lock_irqsave
	mov	fp, r0
	b	.L536
.L538:
	ldrd	r2, [r4]
	str	r3, [r2, #4]
	str	r2, [r3]
	str	r9, [r4]
	str	r8, [r4, #4]
	bl	_raw_spin_unlock_irqrestore
	ldr	r0, [r5, #88]
	mov	r2, #32
	sub	r1, r4, #36
	ldr	r3, [r0, #8]
	ldr	r3, [r3, #16]
	blx	r3
	mov	r10, r0
	mov	r0, r6
	bl	_raw_spin_lock_irqsave
	cmp	r10, #0
	mov	fp, r0
	bne	.L542
.L536:
	ldr	r4, [r5, #148]
	mov	r1, fp
	mov	r0, r6
	cmp	r7, r4
	bne	.L538
.L537:
	mov	r1, fp
	mov	r0, r6
	add	sp, sp, #12
	@ sp needed
	ldrd	r4, [sp]
	ldrd	r6, [sp, #8]
	ldrd	r8, [sp, #16]
	ldrd	r10, [sp, #24]
	ldr	lr, [sp, #32]
	add	sp, sp, #36
	b	_raw_spin_unlock_irqrestore
.L542:
	ldr	r3, [sp, #4]
	movw	r1, #:lower16:.LC0
	mov	r2, r10
	movt	r1, #:upper16:.LC0
	ldr	r0, [r3]
	add	r0, r0, #32
	bl	dev_err
	ldr	r3, [r5, #152]
	str	r4, [r5, #152]
	str	r7, [r4]
	str	r3, [r4, #4]
	str	r4, [r3]
	b	.L537
	.fnend
	.size	rmnet_smd_start_rx, .-rmnet_smd_start_rx
	.align	2
	.syntax unified
	.arm
	.fpu softvfp
	.type	rmnet_smd_notify_complete, %function
rmnet_smd_notify_complete:
	.fnstart
	@ args = 0, pretend = 0, frame = 0
	@ frame_needed = 0, uses_anonymous_args = 0
	strd	r4, [sp, #-24]!
	.save {r4, r5, r6, r7, r8, lr}
	strd	r6, [sp, #8]
	str	r8, [sp, #16]
	str	lr, [sp, #20]
	ldr	r5, [r1, #32]
	ldr	r2, [r1, #44]
	ldr	r7, [r5, #84]
	cmn	r2, #104
	beq	.L545
	cmp	r2, #0
	mov	r6, r0
	mov	r4, r1
	beq	.L546
	cmn	r2, #108
	beq	.L545
	ldr	r0, [r7]
	movw	r1, #:lower16:.LC1
	movt	r1, #:upper16:.LC1
	add	r0, r0, #32
	bl	dev_err
.L546:
	ldr	r3, [r5, #96]
	cmp	r3, r6
	beq	.L567
.L543:
	ldrd	r4, [sp]
	ldrd	r6, [sp, #8]
	ldr	r8, [sp, #16]
	add	sp, sp, #20
	ldr	pc, [sp], #4
.L567:
	add	r6, r5, #172
	.syntax divided
@ 99 "/home/pascua14/Desktop/s5-kernel/arch/arm/include/asm/atomic.h" 1
	dmb
@ 0 "" 2
@ 101 "/home/pascua14/Desktop/s5-kernel/arch/arm/include/asm/atomic.h" 1
	@ atomic_sub_return
1:	ldrex	r3, [r6]
	sub	r3, r3, #1
	strex	r2, r3, [r6]
	teq	r2, #0
	bne	1b
@ 0 "" 2
@ 111 "/home/pascua14/Desktop/s5-kernel/arch/arm/include/asm/atomic.h" 1
	dmb
@ 0 "" 2
	.arm
	.syntax unified
	cmp	r3, #0
	beq	.L543
	ldr	r0, [r5, #96]
	mov	r2, #32
	mov	r1, r4
	ldr	r3, [r0, #8]
	ldr	r3, [r3, #16]
	blx	r3
	subs	r2, r0, #0
	beq	.L543
	.syntax divided
@ 83 "/home/pascua14/Desktop/s5-kernel/arch/arm/include/asm/atomic.h" 1
	@ atomic_sub
1:	ldrex	r3, [r6]
	sub	r3, r3, #1
	strex	r1, r3, [r6]
	teq	r1, #0
	bne	1b
@ 0 "" 2
	.arm
	.syntax unified
	ldr	r0, [r7]
	movw	r1, #:lower16:.LC2
	ldrd	r4, [sp]
	movt	r1, #:upper16:.LC2
	ldrd	r6, [sp, #8]
	ldr	r8, [sp, #16]
	ldr	lr, [sp, #20]
	add	r0, r0, #32
	add	sp, sp, #24
	b	dev_err
.L545:
	mov	r3, #0
	str	r3, [r5, #172]
	b	.L543
	.fnend
	.size	rmnet_smd_notify_complete, .-rmnet_smd_notify_complete
	.align	2
	.syntax unified
	.arm
	.fpu softvfp
	.type	rmnet_sdio_notify_complete, %function
rmnet_sdio_notify_complete:
	.fnstart
	@ args = 0, pretend = 0, frame = 0
	@ frame_needed = 0, uses_anonymous_args = 0
	strd	r4, [sp, #-24]!
	.save {r4, r5, r6, r7, r8, lr}
	strd	r6, [sp, #8]
	str	r8, [sp, #16]
	str	lr, [sp, #20]
	ldr	r4, [r1, #32]
	ldr	r2, [r1, #44]
	ldr	r7, [r4, #84]
	cmn	r2, #104
	beq	.L570
	cmp	r2, #0
	mov	r5, r1
	beq	.L571
	cmn	r2, #108
	beq	.L570
	ldr	r0, [r7]
	movw	r1, #:lower16:.LC3
	movt	r1, #:upper16:.LC3
	add	r0, r0, #32
	bl	dev_err
.L571:
	ldr	r3, [r4, #324]
	tst	r3, #2
	beq	.L568
	add	r6, r4, #196
	.syntax divided
@ 99 "/home/pascua14/Desktop/s5-kernel/arch/arm/include/asm/atomic.h" 1
	dmb
@ 0 "" 2
@ 101 "/home/pascua14/Desktop/s5-kernel/arch/arm/include/asm/atomic.h" 1
	@ atomic_sub_return
1:	ldrex	r3, [r6]
	sub	r3, r3, #1
	strex	r2, r3, [r6]
	teq	r2, #0
	bne	1b
@ 0 "" 2
@ 111 "/home/pascua14/Desktop/s5-kernel/arch/arm/include/asm/atomic.h" 1
	dmb
@ 0 "" 2
	.arm
	.syntax unified
	cmp	r3, #0
	beq	.L568
	ldr	r0, [r4, #96]
	mov	r2, #32
	mov	r1, r5
	ldr	r3, [r0, #8]
	ldr	r3, [r3, #16]
	blx	r3
	subs	r2, r0, #0
	bne	.L592
.L568:
	ldrd	r4, [sp]
	ldrd	r6, [sp, #8]
	ldr	r8, [sp, #16]
	add	sp, sp, #20
	ldr	pc, [sp], #4
.L570:
	mov	r3, #0
	str	r3, [r4, #196]
	b	.L568
.L592:
	.syntax divided
@ 83 "/home/pascua14/Desktop/s5-kernel/arch/arm/include/asm/atomic.h" 1
	@ atomic_sub
1:	ldrex	r3, [r6]
	sub	r3, r3, #1
	strex	r1, r3, [r6]
	teq	r1, #0
	bne	1b
@ 0 "" 2
	.arm
	.syntax unified
	ldr	r0, [r7]
	movw	r1, #:lower16:.LC4
	ldrd	r4, [sp]
	movt	r1, #:upper16:.LC4
	ldrd	r6, [sp, #8]
	ldr	r8, [sp, #16]
	ldr	lr, [sp, #20]
	add	r0, r0, #32
	add	sp, sp, #24
	b	dev_err
	.fnend
	.size	rmnet_sdio_notify_complete, .-rmnet_sdio_notify_complete
	.align	2
	.syntax unified
	.arm
	.fpu softvfp
	.type	rmnet_sdio_control_rx_work, %function
rmnet_sdio_control_rx_work:
	.fnstart
	@ args = 0, pretend = 0, frame = 0
	@ frame_needed = 0, uses_anonymous_args = 0
	strd	r4, [sp, #-36]!
	.save {r4, r5, r6, r7, r8, r9, r10, fp, lr}
	mov	r5, r0
	strd	r6, [sp, #8]
	sub	r6, r0, #32
	strd	r8, [sp, #16]
	sub	r8, r0, #112
	mov	r9, #512
	strd	r10, [sp, #24]
	mov	r10, #256
	str	lr, [sp, #32]
	.pad #4
	sub	sp, sp, #4
	ldr	fp, [r0, #-136]
	b	.L596
.L599:
	ldrd	r2, [r4]
	str	r3, [r2, #4]
	str	r2, [r3]
	str	r10, [r4]
	str	r9, [r4, #4]
	ldr	r3, [r5, #-104]
	sub	r3, r3, #1
	str	r3, [r5, #-104]
	bl	_raw_spin_unlock_irqrestore
	ldr	r3, [r4, #-4]
	cmn	r3, #19
	bne	.L598
	ldr	r3, [r5, #152]
	add	r3, r3, #1
	str	r3, [r5, #152]
	ldr	r0, [r4, #-8]
	bl	kfree
	mov	r0, r7
	bl	kfree
.L596:
	mov	r0, r6
	bl	_raw_spin_lock_irqsave
	ldr	r4, [r5, #-112]
	mov	r3, r0
	mov	r0, r6
	mov	r1, r3
	cmp	r4, r8
	sub	r7, r4, #8
	bne	.L599
.L594:
	add	sp, sp, #4
	@ sp needed
	ldrd	r4, [sp]
	ldrd	r6, [sp, #8]
	ldrd	r8, [sp, #16]
	ldrd	r10, [sp, #24]
	ldr	lr, [sp, #32]
	add	sp, sp, #36
	b	_raw_spin_unlock_irqrestore
.L598:
	ldr	r0, [fp]
	movw	r1, #:lower16:.LC5
	movt	r1, #:upper16:.LC5
	add	r0, r0, #32
	add	sp, sp, #4
	@ sp needed
	ldrd	r4, [sp]
	ldrd	r6, [sp, #8]
	ldrd	r8, [sp, #16]
	ldrd	r10, [sp, #24]
	ldr	lr, [sp, #32]
	add	sp, sp, #36
	b	dev_err
	.fnend
	.size	rmnet_sdio_control_rx_work, .-rmnet_sdio_control_rx_work
	.align	2
	.syntax unified
	.arm
	.fpu softvfp
	.type	ecm_setup, %function
ecm_setup:
	.fnstart
	@ args = 0, pretend = 0, frame = 0
	@ frame_needed = 0, uses_anonymous_args = 0
	strd	r4, [sp, #-16]!
	.save {r4, r5, r6, lr}
	movw	r3, #17185
	str	r6, [sp, #8]
	str	lr, [sp, #12]
	ldr	ip, [r0, #20]
	.pad #8
	sub	sp, sp, #8
	ldrh	r2, [r1]	@ unaligned
	ldrh	lr, [r1, #4]	@ unaligned
	ldrh	r6, [r1, #2]	@ unaligned
	ldr	r5, [ip, #24]
	cmp	r2, r3
	ldrh	ip, [r1, #6]	@ unaligned
	ldr	r3, [r5, #4]
	bne	.L605
	cmp	ip, #0
	bne	.L605
	ldrb	r2, [r0, #148]	@ zero_extendqisi2
	cmp	r2, lr
	bne	.L605
	strh	r6, [r0, #98]	@ movhi
	ldrb	r0, [r3, #26]	@ zero_extendqisi2
	mov	r4, r1
	str	ip, [r3, #4]
	mov	r1, r3
	mov	r2, #32
	bfi	r0, ip, #1, #1
	strb	r0, [r3, #26]
	ldr	r3, [r5]
	ldr	r0, [r3, #4]
	ldr	r3, [r0, #8]
	ldr	r3, [r3, #16]
	blx	r3
	subs	r6, r0, #0
	blt	.L608
.L600:
	mov	r0, r6
	add	sp, sp, #8
	@ sp needed
	ldrd	r4, [sp]
	ldr	r6, [sp, #8]
	add	sp, sp, #12
	ldr	pc, [sp], #4
.L608:
	ldr	r0, [r5]
	movw	r1, #:lower16:.LC6
	str	r6, [sp]
	movt	r1, #:upper16:.LC6
	ldrb	r3, [r4, #1]	@ zero_extendqisi2
	ldrb	r2, [r4]	@ zero_extendqisi2
	add	r0, r0, #32
	bl	dev_err
	b	.L600
.L605:
	mvn	r6, #94
	b	.L600
	.fnend
	.size	ecm_setup, .-ecm_setup
	.align	2
	.syntax unified
	.arm
	.fpu softvfp
	.type	rmnet_mux_notify_complete, %function
rmnet_mux_notify_complete:
	.fnstart
	@ args = 0, pretend = 0, frame = 0
	@ frame_needed = 0, uses_anonymous_args = 0
	strd	r4, [sp, #-24]!
	.save {r4, r5, r6, r7, r8, lr}
	strd	r6, [sp, #8]
	str	r8, [sp, #16]
	str	lr, [sp, #20]
	ldr	r4, [r1, #32]
	ldr	r2, [r1, #44]
	ldr	r7, [r4, #84]
	cmn	r2, #104
	beq	.L611
	cmp	r2, #0
	mov	r5, r1
	beq	.L612
	cmn	r2, #108
	beq	.L611
	ldr	r0, [r7]
	movw	r1, #:lower16:.LC7
	movt	r1, #:upper16:.LC7
	add	r0, r0, #32
	bl	dev_err
.L612:
	add	r6, r4, #376
	.syntax divided
@ 99 "/home/pascua14/Desktop/s5-kernel/arch/arm/include/asm/atomic.h" 1
	dmb
@ 0 "" 2
@ 101 "/home/pascua14/Desktop/s5-kernel/arch/arm/include/asm/atomic.h" 1
	@ atomic_sub_return
1:	ldrex	r3, [r6]
	sub	r3, r3, #1
	strex	r2, r3, [r6]
	teq	r2, #0
	bne	1b
@ 0 "" 2
@ 111 "/home/pascua14/Desktop/s5-kernel/arch/arm/include/asm/atomic.h" 1
	dmb
@ 0 "" 2
	.arm
	.syntax unified
	cmp	r3, #0
	beq	.L609
	ldr	r0, [r4, #96]
	mov	r2, #32
	mov	r1, r5
	ldr	r3, [r0, #8]
	ldr	r3, [r3, #16]
	blx	r3
	subs	r2, r0, #0
	bne	.L630
.L609:
	ldrd	r4, [sp]
	ldrd	r6, [sp, #8]
	ldr	r8, [sp, #16]
	add	sp, sp, #20
	ldr	pc, [sp], #4
.L630:
	.syntax divided
@ 83 "/home/pascua14/Desktop/s5-kernel/arch/arm/include/asm/atomic.h" 1
	@ atomic_sub
1:	ldrex	r3, [r6]
	sub	r3, r3, #1
	strex	r1, r3, [r6]
	teq	r1, #0
	bne	1b
@ 0 "" 2
	.arm
	.syntax unified
	ldr	r0, [r7]
	movw	r1, #:lower16:.LC4
	ldrd	r4, [sp]
	movt	r1, #:upper16:.LC4
	ldrd	r6, [sp, #8]
	ldr	r8, [sp, #16]
	ldr	lr, [sp, #20]
	add	r0, r0, #32
	add	sp, sp, #24
	b	dev_err
.L611:
	mov	r3, #0
	str	r3, [r4, #376]
	b	.L609
	.fnend
	.size	rmnet_mux_notify_complete, .-rmnet_mux_notify_complete
	.align	2
	.syntax unified
	.arm
	.fpu softvfp
	.type	rmnet_mux_setup, %function
rmnet_mux_setup:
	.fnstart
	@ args = 0, pretend = 0, frame = 0
	@ frame_needed = 0, uses_anonymous_args = 0
	strd	r4, [sp, #-32]!
	.save {r4, r5, r6, r7, r8, r9, r10, lr}
	strd	r6, [sp, #8]
	strd	r8, [sp, #16]
	str	r10, [sp, #24]
	str	lr, [sp, #28]
	ldr	r2, [r0, #20]
	ldr	r3, [r0, #372]
	ldrh	r8, [r1, #2]	@ unaligned
	ldrh	r6, [r1, #6]	@ unaligned
	ldr	r7, [r2, #24]
	cmp	r3, #0
	ldr	r5, [r7, #4]
	beq	.L639
	ldrh	r3, [r1]	@ unaligned
	movw	r2, #8482
	mov	r4, r0
	rev16	r3, r3
	uxth	r3, r3
	cmp	r3, r2
	beq	.L633
	movw	r2, #41217
	cmp	r3, r2
	beq	.L634
	cmp	r3, #8448
	beq	.L644
.L641:
	mvn	r4, #94
.L631:
	mov	r0, r4
	ldrd	r4, [sp]
	ldrd	r6, [sp, #8]
	ldrd	r8, [sp, #16]
	ldr	r10, [sp, #24]
	add	sp, sp, #28
	ldr	pc, [sp], #4
.L634:
	cmp	r8, #0
	bne	.L641
	add	r8, r0, #368
	mov	r0, r8
	bl	_raw_spin_lock
	mov	r3, r4
	ldr	r9, [r3, #340]!
	cmp	r9, r3
	beq	.L645
	ldrd	r2, [r9]
	mov	ip, #256
	mov	r1, #512
	mov	r0, r8
	mov	r10, r9
	str	r3, [r2, #4]
	str	r2, [r3]
	str	ip, [r9]
	str	r1, [r9, #4]
	ldr	r3, [r4, #348]
	sub	r3, r3, #1
	str	r3, [r4, #348]
	bl	_raw_spin_unlock
	ldmdb	r9, {r1, r8}
	ldr	r0, [r5]
	cmp	r6, r8
	movcc	r8, r6
	mov	r2, r8
	bl	memcpy
	movw	r3, #:lower16:rmnet_mux_response_complete
	str	r4, [r5, #32]
	movt	r3, #:upper16:rmnet_mux_response_complete
	str	r3, [r5, #28]
	ldr	r0, [r10, #-8]!
	bl	kfree
	mov	r0, r10
	bl	kfree
	ldr	r3, [r4, #416]
	cmp	r8, r6
	movge	r6, #0
	movlt	r6, #1
	add	r3, r3, #1
	str	r3, [r4, #416]
.L636:
	ldrb	r3, [r5, #26]	@ zero_extendqisi2
	str	r8, [r5, #4]
	mov	r1, r5
	mov	r2, #32
	bfi	r3, r6, #1, #1
	strb	r3, [r5, #26]
	ldr	r3, [r7]
	ldr	r0, [r3, #4]
	ldr	r3, [r0, #8]
	ldr	r3, [r3, #16]
	blx	r3
	subs	r4, r0, #0
	bge	.L631
	ldr	r0, [r7]
	movw	r1, #:lower16:.LC8
	mov	r2, r4
	movt	r1, #:upper16:.LC8
	add	r0, r0, #32
	bl	dev_err
	b	.L631
.L644:
	movw	r3, #:lower16:rmnet_mux_command_complete
	mov	r8, r6
	str	r0, [r5, #32]
	movt	r3, #:upper16:rmnet_mux_command_complete
	mov	r6, #0
	str	r3, [r5, #28]
	b	.L636
.L633:
	ldr	r3, [r0, #352]
	adds	r6, r6, #0
	movne	r6, #1
	ands	r8, r8, #1
	movne	r8, #0
	orrne	r3, r3, #2
	biceq	r3, r3, #2
	str	r3, [r0, #352]
	b	.L636
.L639:
	mvn	r4, #106
	b	.L631
.L645:
	mov	r0, r8
	mvn	r4, #94
	bl	_raw_spin_unlock
	b	.L631
	.fnend
	.size	rmnet_mux_setup, .-rmnet_mux_setup
	.align	2
	.syntax unified
	.arm
	.fpu softvfp
	.type	rmnet_mux_smd_start_rx, %function
rmnet_mux_smd_start_rx:
	.fnstart
	@ args = 0, pretend = 0, frame = 8
	@ frame_needed = 0, uses_anonymous_args = 0
	strd	r4, [sp, #-36]!
	.save {r4, r5, r6, r7, r8, r9, r10, fp, lr}
	mov	r5, r0
	strd	r6, [sp, #8]
	add	r6, r0, #368
	add	r7, r0, #112
	strd	r8, [sp, #16]
	mov	r9, #256
	mov	r8, #512
	strd	r10, [sp, #24]
	str	lr, [sp, #32]
	ldr	r3, [r0, #84]
	.pad #12
	sub	sp, sp, #12
	mov	r0, r6
	str	r3, [sp, #4]
	bl	_raw_spin_lock_irqsave
	mov	fp, r0
	b	.L647
.L649:
	ldrd	r2, [r4]
	str	r3, [r2, #4]
	str	r2, [r3]
	str	r9, [r4]
	str	r8, [r4, #4]
	bl	_raw_spin_unlock_irqrestore
	ldr	r0, [r5, #88]
	mov	r2, #32
	sub	r1, r4, #36
	ldr	r3, [r0, #8]
	ldr	r3, [r3, #16]
	blx	r3
	mov	r10, r0
	mov	r0, r6
	bl	_raw_spin_lock_irqsave
	cmp	r10, #0
	mov	fp, r0
	bne	.L653
.L647:
	ldr	r4, [r5, #112]
	mov	r1, fp
	mov	r0, r6
	cmp	r7, r4
	bne	.L649
.L648:
	mov	r1, fp
	mov	r0, r6
	add	sp, sp, #12
	@ sp needed
	ldrd	r4, [sp]
	ldrd	r6, [sp, #8]
	ldrd	r8, [sp, #16]
	ldrd	r10, [sp, #24]
	ldr	lr, [sp, #32]
	add	sp, sp, #36
	b	_raw_spin_unlock_irqrestore
.L653:
	ldr	r3, [sp, #4]
	movw	r1, #:lower16:.LC0
	mov	r2, r10
	movt	r1, #:upper16:.LC0
	ldr	r0, [r3]
	add	r0, r0, #32
	bl	dev_err
	ldr	r3, [r5, #116]
	str	r4, [r5, #116]
	str	r7, [r4]
	str	r3, [r4, #4]
	str	r4, [r3]
	b	.L648
	.fnend
	.size	rmnet_mux_smd_start_rx, .-rmnet_mux_smd_start_rx
	.align	2
	.syntax unified
	.arm
	.fpu softvfp
	.type	composite_suspend, %function
composite_suspend:
	.fnstart
	@ args = 0, pretend = 0, frame = 0
	@ frame_needed = 0, uses_anonymous_args = 0
	strd	r4, [sp, #-16]!
	.save {r4, r5, r6, lr}
	mov	r5, r0
	add	r0, r0, #32
	str	r6, [sp, #8]
	str	lr, [sp, #12]
	bl	dev_get_drvdata
	ldr	r3, [r0, #12]
	mov	r6, r0
	cmp	r3, #0
	beq	.L655
	ldr	r4, [r3, #36]!
	cmp	r3, r4
	sub	r4, r4, #72
	beq	.L655
.L656:
	ldr	r2, [r4, #56]
	mov	r0, r4
	cmp	r2, #0
	beq	.L657
	blx	r2
	ldr	r3, [r6, #12]
	ldr	r4, [r4, #72]
	add	r3, r3, #36
	cmp	r3, r4
	sub	r4, r4, #72
	bne	.L656
.L655:
	movw	r3, #:lower16:.LANCHOR1
	movt	r3, #:upper16:.LANCHOR1
	ldr	r3, [r3, #2252]
	ldr	r3, [r3, #36]
	cmp	r3, #0
	beq	.L659
	mov	r0, r6
	blx	r3
.L659:
	ldrb	r3, [r6, #16]	@ zero_extendqisi2
	orr	r3, r3, #1
	strb	r3, [r6, #16]
	ldr	r3, [r5]
	ldr	r3, [r3, #16]
	cmp	r3, #0
	beq	.L654
	mov	r0, r5
	mov	r1, #2
	ldrd	r4, [sp]
	ldr	r6, [sp, #8]
	ldr	lr, [sp, #12]
	add	sp, sp, #16
	bx	r3
.L657:
	ldr	r4, [r4, #72]
	cmp	r3, r4
	sub	r4, r4, #72
	bne	.L656
	b	.L655
.L654:
	ldrd	r4, [sp]
	ldr	r6, [sp, #8]
	add	sp, sp, #12
	ldr	pc, [sp], #4
	.fnend
	.size	composite_suspend, .-composite_suspend
	.align	2
	.syntax unified
	.arm
	.fpu softvfp
	.type	composite_resume, %function
composite_resume:
	.fnstart
	@ args = 0, pretend = 0, frame = 0
	@ frame_needed = 0, uses_anonymous_args = 0
	strd	r4, [sp, #-16]!
	.save {r4, r5, r6, lr}
	str	r6, [sp, #8]
	mov	r6, r0
	add	r0, r0, #32
	str	lr, [sp, #12]
	bl	dev_get_drvdata
	movw	r3, #:lower16:.LANCHOR1
	mov	r5, r0
	movt	r3, #:upper16:.LANCHOR1
	ldr	r3, [r3, #2252]
	ldr	r3, [r3, #40]
	cmp	r3, #0
	beq	.L670
	blx	r3
.L670:
	ldr	r2, [r5, #12]
	cmp	r2, #0
	beq	.L672
	mov	r1, r2
	ldr	r4, [r1, #36]!
	cmp	r1, r4
	sub	r4, r4, #72
	beq	.L674
.L673:
	ldr	r3, [r4, #60]
	mov	r0, r4
	cmp	r3, #0
	beq	.L675
	blx	r3
	ldr	r2, [r5, #12]
	ldr	r4, [r4, #72]
	add	r1, r2, #36
	cmp	r1, r4
	sub	r4, r4, #72
	bne	.L673
.L674:
	ldrb	r3, [r2, #23]	@ zero_extendqisi2
	cmp	r3, #0
	ldrne	r1, [r5, #64]
	moveq	r1, #500
	mulne	r1, r1, r3
	ldr	r3, [r6]
	ldr	r3, [r3, #16]
	cmp	r3, #0
	beq	.L672
	mov	r0, r6
	blx	r3
.L672:
	ldrb	r3, [r5, #16]	@ zero_extendqisi2
	bfc	r3, #0, #1
	strb	r3, [r5, #16]
	ldrd	r4, [sp]
	ldr	r6, [sp, #8]
	add	sp, sp, #12
	ldr	pc, [sp], #4
.L675:
	ldr	r4, [r4, #72]
	cmp	r1, r4
	sub	r4, r4, #72
	bne	.L673
	b	.L674
	.fnend
	.size	composite_resume, .-composite_resume
	.align	2
	.syntax unified
	.arm
	.fpu softvfp
	.type	rndis_ethaddr_store, %function
rndis_ethaddr_store:
	.fnstart
	@ args = 0, pretend = 0, frame = 0
	@ frame_needed = 0, uses_anonymous_args = 0
	strd	r4, [sp, #-16]!
	.save {r4, r5, r6, lr}
	mov	r4, r3
	movw	r5, #52429
	str	r6, [sp, #8]
	movt	r5, 52428
	str	lr, [sp, #12]
	bl	dev_get_drvdata
	ldr	ip, [r0, #4]
	mov	r2, #0
	mov	r0, #2
	mov	r1, r2
	ldr	r3, .L696
	str	r0, [ip]
	strh	r2, [ip, #4]	@ movhi
	b	.L690
.L691:
	sub	r2, r1, r2
	add	r1, r1, #1
	add	r2, r2, #1
	cmp	r1, #256
	ldrb	lr, [ip, r2]	@ zero_extendqisi2
	eor	r0, r0, lr
	strb	r0, [ip, r2]
	beq	.L694
.L690:
	umull	r0, r2, r5, r1
	ldrb	r0, [r3], #1	@ zero_extendqisi2
	lsr	r2, r2, #2
	cmp	r0, #0
	add	r2, r2, r2, lsl #2
	bne	.L691
.L694:
	mov	r0, r4
	ldrd	r4, [sp]
	ldr	r6, [sp, #8]
	add	sp, sp, #12
	ldr	pc, [sp], #4
.L697:
	.align	2
.L696:
	.word	.LANCHOR1+2256
	.fnend
	.size	rndis_ethaddr_store, .-rndis_ethaddr_store
	.align	2
	.syntax unified
	.arm
	.fpu softvfp
	.type	audio_pcm_hw_params, %function
audio_pcm_hw_params:
	.fnstart
	@ args = 0, pretend = 0, frame = 0
	@ frame_needed = 0, uses_anonymous_args = 0
	ldr	r3, [r1, #284]
	movw	r2, #44100
	ldr	ip, [r1, #296]
	cmp	r3, #2
	cmpeq	ip, r2
	bne	.L704
	strd	r4, [sp, #-24]!
	.save {r4, r5, r6, r7, r8, lr}
	add	r5, r0, #132
	strd	r6, [sp, #8]
	str	r8, [sp, #16]
	str	lr, [sp, #20]
	ldr	ip, [r0]
	.pad #8
	sub	sp, sp, #8
	ldr	r3, [ip]
	ldr	lr, [r3, #500]
	add	lr, lr, #256
	ldrd	r2, [lr]
	orrs	r3, r2, r3
	beq	.L714
.L700:
	mov	r3, #2
	mov	lr, #0
	add	r2, r0, #144
	str	r3, [r0, #132]
	ldr	r3, [ip]
	ldr	r3, [r3, #500]
	str	r3, [r0, #136]
	str	lr, [r0, #152]
	ldr	r3, [ip]
	ldr	lr, [r1, #380]
	ldr	r3, [r3, #500]
	cmp	r3, #0
	beq	.L701
	ldr	ip, [r3, #284]
	cmp	ip, #0
	beq	.L701
.L702:
	mov	r6, #0
	mov	r4, r0
	mov	r7, r1
	mov	r0, r3
	str	r6, [sp]
	mov	r1, lr
	mov	r3, #208
	ldr	r8, [ip]
	blx	r8
	cmp	r0, r6
	str	r0, [r4, #140]
	beq	.L706
	ldr	r2, [r7, #380]
	cmp	r5, r6
	ldr	r3, [r4, #168]
	str	r2, [r4, #148]
	beq	.L703
	str	r5, [r3, #552]
	ldr	r2, [r4, #140]
	mov	r0, r6
	str	r2, [r3, #540]
	ldr	r2, [r4, #144]
	str	r2, [r3, #544]
	ldr	r2, [r4, #148]
	str	r2, [r3, #548]
.L698:
	add	sp, sp, #8
	@ sp needed
	ldrd	r4, [sp]
	ldrd	r6, [sp, #8]
	ldr	r8, [sp, #16]
	add	sp, sp, #20
	ldr	pc, [sp], #4
.L714:
	mvn	r2, #0
	mov	r3, #0
	strd	r2, [lr]
	ldr	ip, [r0]
	b	.L700
.L701:
	movw	ip, #:lower16:arm_dma_ops
	movt	ip, #:upper16:arm_dma_ops
	cmp	ip, #0
	bne	.L702
	.syntax divided
@ 175 "/home/pascua14/Desktop/s5-kernel/arch/arm/include/asm/dma-mapping.h" 1
	1:	.word 0xe7f001f2
.pushsection .rodata.str, "aMS", %progbits, 1
2:	.asciz "/home/pascua14/Desktop/s5-kernel/arch/arm/include/asm/dma-mapping.h"
.popsection
.pushsection __bug_table,"a"
3:	.word 1b, 2b
	.hword 175, 0
.popsection
@ 0 "" 2
	.arm
	.syntax unified
.L703:
	mov	r0, r5
	str	r5, [r3, #540]
	str	r5, [r3, #544]
	str	r5, [r3, #548]
	str	r5, [r3, #552]
	b	.L698
.L704:
	mvn	r0, #21
	bx	lr
.L706:
	mvn	r0, #11
	b	.L698
	.fnend
	.size	audio_pcm_hw_params, .-audio_pcm_hw_params
	.align	2
	.syntax unified
	.arm
	.fpu softvfp
	.type	ffs_ep0_open, %function
ffs_ep0_open:
	.fnstart
	@ args = 0, pretend = 0, frame = 0
	@ frame_needed = 0, uses_anonymous_args = 0
	@ link register save eliminated.
	ldr	r3, [r0, #340]
	ldr	r2, [r3, #96]
	cmp	r2, #3
	beq	.L717
	add	r2, r3, #88
	str	r3, [r1, #124]
	.syntax divided
@ 45 "/home/pascua14/Desktop/s5-kernel/arch/arm/include/asm/atomic.h" 1
	@ atomic_add
1:	ldrex	r1, [r2]
	add	r1, r1, #1
	strex	r0, r1, [r2]
	teq	r0, #0
	bne	1b
@ 0 "" 2
	.arm
	.syntax unified
	add	r2, r3, #92
	.syntax divided
@ 45 "/home/pascua14/Desktop/s5-kernel/arch/arm/include/asm/atomic.h" 1
	@ atomic_add
1:	ldrex	r1, [r2]
	add	r1, r1, #1
	strex	r0, r1, [r2]
	teq	r0, #0
	bne	1b
@ 0 "" 2
	.arm
	.syntax unified
	mov	r0, #0
	bx	lr
.L717:
	mvn	r0, #15
	bx	lr
	.fnend
	.size	ffs_ep0_open, .-ffs_ep0_open
	.align	2
	.syntax unified
	.arm
	.fpu softvfp
	.type	ffs_epfile_open, %function
ffs_epfile_open:
	.fnstart
	@ args = 0, pretend = 0, frame = 0
	@ frame_needed = 0, uses_anonymous_args = 0
	.save {r4, lr}
	str	r4, [sp, #-8]!
	str	lr, [sp, #4]
	ldr	r2, [r0, #340]
	ldr	r3, [r2, #40]
	ldr	r3, [r3, #96]
	cmp	r3, #2
	bne	.L722
	str	r2, [r1, #124]
	ldr	r3, [r2, #40]
	add	r1, r3, #88
	.syntax divided
@ 45 "/home/pascua14/Desktop/s5-kernel/arch/arm/include/asm/atomic.h" 1
	@ atomic_add
1:	ldrex	r0, [r1]
	add	r0, r0, #1
	strex	ip, r0, [r1]
	teq	ip, #0
	bne	1b
@ 0 "" 2
	.arm
	.syntax unified
	add	r1, r3, #92
	.syntax divided
@ 45 "/home/pascua14/Desktop/s5-kernel/arch/arm/include/asm/atomic.h" 1
	@ atomic_add
1:	ldrex	r0, [r1]
	add	r0, r0, #1
	strex	ip, r0, [r1]
	teq	ip, #0
	bne	1b
@ 0 "" 2
	.arm
	.syntax unified
	mov	r3, #0
	mov	r0, r3
	str	r3, [r2, #36]
	ldr	r4, [sp]
	add	sp, sp, #4
	ldr	pc, [sp], #4
.L722:
	movw	r0, #:lower16:.LC9
	movw	r1, #946
	movt	r0, #:upper16:.LC9
	bl	warn_slowpath_null
	ldr	r4, [sp]
	add	sp, sp, #4
	mvn	r0, #18
	ldr	pc, [sp], #4
	.fnend
	.size	ffs_epfile_open, .-ffs_epfile_open
	.align	2
	.syntax unified
	.arm
	.fpu softvfp
	.type	do_mode_sense, %function
do_mode_sense:
	.fnstart
	@ args = 0, pretend = 0, frame = 0
	@ frame_needed = 0, uses_anonymous_args = 0
	strd	r4, [sp, #-32]!
	.save {r4, r5, r6, r7, r8, r9, r10, lr}
	strd	r6, [sp, #8]
	strd	r8, [sp, #16]
	str	r10, [sp, #24]
	str	lr, [sp, #28]
	ldrb	r3, [r0, #77]	@ zero_extendqisi2
	ldrb	r8, [r0, #76]	@ zero_extendqisi2
	ldr	r7, [r0, #104]
	ldr	r5, [r1]
	tst	r3, #247
	bne	.L733
	ldrb	r4, [r0, #78]	@ zero_extendqisi2
	lsr	r9, r4, #6
	and	r4, r4, #63
	cmp	r9, #3
	moveq	r3, #14592
	mvneq	r0, #21
	movteq	r3, 5
	streq	r3, [r7, #28]
	beq	.L723
	mov	r1, #8
	mov	r0, r5
	bl	__memzero
	sub	r3, r4, #63
	cmp	r8, #26
	ldrb	r2, [r7, #24]	@ zero_extendqisi2
	clz	r3, r3
	lsr	r3, r3, #5
	beq	.L739
	lsl	r2, r2, #6
	add	r6, r5, #8
	bic	r2, r2, #127
	movw	r10, #65535
	strb	r2, [r5, #3]
.L728:
	cmp	r4, #8
	orreq	r3, r3, #1
	cmp	r3, #0
	bne	.L740
	cmp	r4, #42
	beq	.L732
.L733:
	mov	r3, #9216
	mvn	r0, #21
	movt	r3, 5
	str	r3, [r7, #28]
.L723:
	ldrd	r4, [sp]
	ldrd	r6, [sp, #8]
	ldrd	r8, [sp, #16]
	ldr	r10, [sp, #24]
	add	sp, sp, #28
	ldr	pc, [sp], #4
.L739:
	lsl	r2, r2, #6
	add	r6, r5, #4
	mov	r10, #255
	bic	r2, r2, #127
	strb	r2, [r5, #2]
	b	.L728
.L740:
	mov	r3, #10
	mov	r2, #8
	mov	r1, r3
	add	r0, r6, #2
	strb	r2, [r6]
	strb	r3, [r6, #1]
	bl	__memzero
	cmp	r9, #1
	beq	.L730
	mvn	r3, #0
	mov	r2, #4
	strb	r2, [r6, #2]
	strb	r3, [r6, #4]
	strb	r3, [r6, #5]
	str	r3, [r6, #8]	@ unaligned
.L730:
	add	r0, r6, #12
.L731:
	sub	r0, r0, r5
	cmp	r10, r0
	blt	.L733
	cmp	r8, #26
	subeq	r3, r0, #1
	strbeq	r3, [r5]
	beq	.L723
	sub	r3, r0, #2
	uxth	r3, r3
	lsr	r2, r3, #8
	strb	r2, [r5]
	strb	r3, [r5, #1]
	b	.L723
.L732:
	mov	r3, #26
	add	r0, r6, #2
	strb	r4, [r6]
	mov	r1, r3
	strb	r3, [r6, #1]
	bl	__memzero
	mov	r3, #2
	mov	r1, #4
	mov	r2, #40
	add	r0, r6, #28
	strb	r3, [r6, #2]
	strb	r3, [r6, #3]
	strb	r1, [r6, #4]
	strb	r2, [r6, #6]
	b	.L731
	.fnend
	.size	do_mode_sense, .-do_mode_sense
	.align	2
	.global	usb_rmnet_mux_ctrl_open
	.syntax unified
	.arm
	.fpu softvfp
	.type	usb_rmnet_mux_ctrl_open, %function
usb_rmnet_mux_ctrl_open:
	.fnstart
	@ args = 0, pretend = 0, frame = 0
	@ frame_needed = 0, uses_anonymous_args = 0
	movw	r3, #:lower16:.LANCHOR1
	strd	r4, [sp, #-24]!
	.save {r4, r5, r6, r7, r8, lr}
	movt	r3, #:upper16:.LANCHOR1
	strd	r6, [sp, #8]
	mov	r7, r1
	str	r8, [sp, #16]
	str	lr, [sp, #20]
	ldr	r5, [r3, #2512]
	add	r6, r5, #368
	mov	r0, r6
	bl	_raw_spin_lock_irqsave
	ldr	r4, [r5, #356]
	mov	r1, r0
	cmp	r4, #0
	bne	.L745
	mov	r3, #1
	mov	r0, r6
	str	r3, [r5, #356]
	str	r5, [r7, #124]
	bl	_raw_spin_unlock_irqrestore
	mov	r0, r4
.L741:
	ldrd	r4, [sp]
	ldrd	r6, [sp, #8]
	ldr	r8, [sp, #16]
	add	sp, sp, #20
	ldr	pc, [sp], #4
.L745:
	mov	r0, r6
	bl	_raw_spin_unlock_irqrestore
	movw	r1, #:lower16:.LANCHOR2
	movw	r0, #:lower16:.LC10
	movt	r1, #:upper16:.LANCHOR2
	movt	r0, #:upper16:.LC10
	bl	printk
	mvn	r0, #15
	b	.L741
	.fnend
	.size	usb_rmnet_mux_ctrl_open, .-usb_rmnet_mux_ctrl_open
	.align	2
	.syntax unified
	.arm
	.fpu softvfp
	.type	audio_setup, %function
audio_setup:
	.fnstart
	@ args = 0, pretend = 0, frame = 0
	@ frame_needed = 0, uses_anonymous_args = 0
	.save {r4, lr}
	str	r4, [sp, #-8]!
	str	lr, [sp, #4]
	ldr	r3, [r0, #20]
	ldrb	r2, [r1]	@ zero_extendqisi2
	ldr	r0, [r3, #24]
	cmp	r2, #34
	ldr	r3, [r0, #4]
	beq	.L748
	cmp	r2, #162
	bne	.L756
	ldrh	ip, [r1, #2]	@ unaligned
	ldrb	r2, [r1, #1]	@ zero_extendqisi2
	ldr	r1, [r3]
	cmp	ip, #256
	bne	.L756
	sub	r2, r2, #129
	cmp	r2, #3
	bhi	.L756
	mov	r4, #68
	mvn	lr, #83
	mov	ip, #0
	mov	r2, #3
	strb	r4, [r1]
	strb	lr, [r1, #1]
	strb	ip, [r1, #2]
.L751:
	ldrb	lr, [r3, #26]	@ zero_extendqisi2
	movw	ip, #:lower16:audio_control_complete
	str	r2, [r3, #4]
	movt	ip, #:upper16:audio_control_complete
	mov	r1, r3
	mov	r2, #32
	str	ip, [r3, #28]
	bfc	lr, #1, #1
	strb	lr, [r3, #26]
	ldr	r3, [r0]
	ldr	r0, [r3, #4]
	ldr	r3, [r0, #8]
	ldr	r3, [r3, #16]
	blx	r3
	subs	r4, r0, #0
	bge	.L746
	movw	r0, #:lower16:.LC11
	mov	r1, r4
	movt	r0, #:upper16:.LC11
	bl	printk
	b	.L746
.L748:
	ldrb	ip, [r1, #1]	@ zero_extendqisi2
	ldrh	r2, [r1, #6]	@ unaligned
	sub	r1, ip, #1
	cmp	r1, #3
	bls	.L751
.L756:
	mvn	r4, #94
.L746:
	mov	r0, r4
	ldr	r4, [sp]
	add	sp, sp, #4
	ldr	pc, [sp], #4
	.fnend
	.size	audio_setup, .-audio_setup
	.align	2
	.syntax unified
	.arm
	.fpu softvfp
	.type	gsmd_start_rx, %function
gsmd_start_rx:
	.fnstart
	@ args = 0, pretend = 0, frame = 0
	@ frame_needed = 0, uses_anonymous_args = 0
	strd	r4, [sp, #-36]!
	.save {r4, r5, r6, r7, r8, r9, r10, fp, lr}
	subs	r5, r0, #0
	strd	r6, [sp, #8]
	strd	r8, [sp, #16]
	strd	r10, [sp, #24]
	str	lr, [sp, #32]
	.pad #4
	sub	sp, sp, #4
	beq	.L773
	add	r6, r5, #4
	mov	r0, r6
	bl	_raw_spin_lock_irqsave
	ldr	r3, [r5, #68]
	mov	r7, r0
	cmp	r3, #0
	beq	.L761
	add	r9, r5, #12
	mov	fp, #256
	ldr	r8, [r3, #92]
	b	.L762
.L775:
	ldr	r4, [r5, #12]
	cmp	r9, r4
	beq	.L761
	ldrd	r2, [r4]
	str	r3, [r2, #4]
	str	r2, [r3]
	mov	r3, #2048
	str	r3, [r4, #-32]
	mov	r3, #512
	str	fp, [r4]
	str	r3, [r4, #4]
	bl	_raw_spin_unlock_irqrestore
	ldr	r3, [r8, #8]
	mov	r2, #208
	sub	r1, r4, #36
	mov	r0, r8
	ldr	r3, [r3, #16]
	blx	r3
	mov	r10, r0
	mov	r0, r6
	bl	_raw_spin_lock_irqsave
	cmp	r10, #0
	mov	r7, r0
	bne	.L774
.L762:
	ldr	r3, [r5, #72]
	mov	r1, r7
	mov	r0, r6
	ldr	r3, [r3, #8]
	tst	r3, #1
	bne	.L775
.L761:
	mov	r1, r7
	mov	r0, r6
	add	sp, sp, #4
	@ sp needed
	ldrd	r4, [sp]
	ldrd	r6, [sp, #8]
	ldrd	r8, [sp, #16]
	ldrd	r10, [sp, #24]
	ldr	lr, [sp, #32]
	add	sp, sp, #36
	b	_raw_spin_unlock_irqrestore
.L774:
	movw	r0, #:lower16:.LC13
	ldr	r3, [r5]
	mov	r2, r5
	movt	r0, #:upper16:.LC13
	ldr	r1, .L776
	bl	printk
	ldr	r3, [r5, #16]
	str	r4, [r5, #16]
	str	r9, [r4]
	str	r3, [r4, #4]
	str	r4, [r3]
	b	.L761
.L773:
	ldr	r1, .L776
	movw	r0, #:lower16:.LC12
	movt	r0, #:upper16:.LC12
	add	sp, sp, #4
	@ sp needed
	ldrd	r4, [sp]
	ldrd	r6, [sp, #8]
	ldrd	r8, [sp, #16]
	ldrd	r10, [sp, #24]
	ldr	lr, [sp, #32]
	add	sp, sp, #36
	b	printk
.L777:
	.align	2
.L776:
	.word	.LANCHOR2+24
	.fnend
	.size	gsmd_start_rx, .-gsmd_start_rx
	.align	2
	.syntax unified
	.arm
	.fpu softvfp
	.type	gbam_stop, %function
gbam_stop:
	.fnstart
	@ args = 0, pretend = 0, frame = 0
	@ frame_needed = 0, uses_anonymous_args = 0
	cmp	r1, #0
	strd	r4, [sp, #-16]!
	.save {r4, r5, r6, lr}
	mov	r4, r0
	str	r6, [sp, #8]
	str	lr, [sp, #12]
	beq	.L792
	add	r5, r0, #8
	mov	r0, r5
	bl	_raw_spin_lock
	ldr	r3, [r4, #12]
	cmp	r3, #0
	beq	.L793
	ldr	r0, [r3, #84]
	ldr	r1, [r4, #116]
	ldr	r3, [r0, #8]
	ldr	r3, [r3, #20]
	blx	r3
	subs	r2, r0, #0
	bne	.L794
.L783:
	mov	r0, r5
	ldrd	r4, [sp]
	ldr	r6, [sp, #8]
	ldr	lr, [sp, #12]
	add	sp, sp, #16
	b	_raw_spin_unlock
.L792:
	add	r5, r0, #4
	mov	r0, r5
	bl	_raw_spin_lock
	ldr	r3, [r4, #12]
	cmp	r3, #0
	beq	.L795
	ldr	r0, [r3, #88]
	ldr	r1, [r4, #112]
	ldr	r3, [r0, #8]
	ldr	r3, [r3, #20]
	blx	r3
	subs	r2, r0, #0
	beq	.L783
	movw	r0, #:lower16:.LC15
	ldr	r1, .L796
	movt	r0, #:upper16:.LC15
	bl	printk
	b	.L783
.L794:
	movw	r0, #:lower16:.LC15
	ldr	r1, .L796+4
	movt	r0, #:upper16:.LC15
	bl	printk
	b	.L783
.L793:
	mov	r0, r5
	bl	_raw_spin_unlock
	ldr	r1, .L796+4
	movw	r0, #:lower16:.LC14
.L791:
	ldrd	r4, [sp]
	movt	r0, #:upper16:.LC14
	ldr	r6, [sp, #8]
	ldr	lr, [sp, #12]
	add	sp, sp, #16
	b	printk
.L795:
	mov	r0, r5
	bl	_raw_spin_unlock
	movw	r0, #:lower16:.LC14
	ldr	r1, .L796
	b	.L791
.L797:
	.align	2
.L796:
	.word	.LANCHOR2+40
	.word	.LANCHOR2+64
	.fnend
	.size	gbam_stop, .-gbam_stop
	.align	2
	.syntax unified
	.arm
	.fpu softvfp
	.type	ghsic_send_cpkt_tomodem, %function
ghsic_send_cpkt_tomodem:
	.fnstart
	@ args = 0, pretend = 0, frame = 0
	@ frame_needed = 0, uses_anonymous_args = 0
	movw	r3, #:lower16:.LANCHOR1
	strd	r4, [sp, #-24]!
	.save {r4, r5, r6, r7, r8, lr}
	mov	ip, r0
	movt	r3, #:upper16:.LANCHOR1
	strd	r6, [sp, #8]
	mov	r6, r1
	str	r8, [sp, #16]
	str	lr, [sp, #20]
	ldr	r1, [r3, #1036]
	cmp	r0, r1
	bcs	.L805
	mov	r4, r2
	mov	r2, #104
	mla	r3, r2, r0, r3
	ldr	r5, [r3, #1040]
	cmp	r5, #0
	beq	.L806
	mov	r1, #32
	mov	r0, r4
	bl	__kmalloc
	subs	r7, r0, #0
	beq	.L803
	mov	r2, r4
	mov	r1, r6
	bl	memcpy
	ldr	r0, [r5, #84]
	ands	r4, r0, #1
	beq	.L807
	ldr	r3, [r5, #96]
	mov	r4, #0
	add	r3, r3, #1
	str	r3, [r5, #96]
.L798:
	mov	r0, r4
	ldrd	r4, [sp]
	ldrd	r6, [sp, #8]
	ldr	r8, [sp, #16]
	add	sp, sp, #20
	ldr	pc, [sp], #4
.L807:
	ldr	r3, [r5, #104]
	mov	r0, r7
	add	r3, r3, #1
	str	r3, [r5, #104]
	bl	kfree
	b	.L798
.L803:
	mvn	r4, #11
	b	.L798
.L806:
	movw	r0, #:lower16:.LC12
	ldr	r1, .L808
	mvn	r4, #18
	movt	r0, #:upper16:.LC12
	bl	printk
	b	.L798
.L805:
	movw	r0, #:lower16:.LC16
	mov	r2, ip
	ldr	r1, .L808
	movt	r0, #:upper16:.LC16
	mvn	r4, #18
	bl	printk
	b	.L798
.L809:
	.align	2
.L808:
	.word	.LANCHOR2+88
	.fnend
	.size	ghsic_send_cpkt_tomodem, .-ghsic_send_cpkt_tomodem
	.align	2
	.syntax unified
	.arm
	.fpu softvfp
	.type	ecm_qc_setup, %function
ecm_qc_setup:
	.fnstart
	@ args = 0, pretend = 0, frame = 0
	@ frame_needed = 0, uses_anonymous_args = 0
	strd	r4, [sp, #-12]!
	.save {r4, r5, lr}
	movw	r3, #17185
	str	lr, [sp, #8]
	ldr	ip, [r0, #20]
	.pad #12
	sub	sp, sp, #12
	ldrh	r2, [r1]	@ unaligned
	ldrh	r4, [r1, #4]	@ unaligned
	ldrh	r5, [r1, #2]	@ unaligned
	ldr	lr, [ip, #24]
	cmp	r2, r3
	ldrh	ip, [r1, #6]	@ unaligned
	ldr	r3, [lr, #4]
	bne	.L815
	cmp	ip, #0
	bne	.L815
	ldrb	r2, [r0, #120]	@ zero_extendqisi2
	cmp	r2, r4
	bne	.L815
	strh	r5, [r0, #98]	@ movhi
	ldrb	r0, [r3, #26]	@ zero_extendqisi2
	mov	r4, r1
	str	ip, [r3, #4]
	mov	r1, r3
	mov	r2, #32
	bfi	r0, ip, #1, #1
	strb	r0, [r3, #26]
	ldr	r3, [lr]
	ldr	r0, [r3, #4]
	ldr	r3, [r0, #8]
	ldr	r3, [r3, #16]
	blx	r3
	subs	r5, r0, #0
	blt	.L818
.L810:
	mov	r0, r5
	add	sp, sp, #12
	@ sp needed
	ldrd	r4, [sp]
	add	sp, sp, #8
	ldr	pc, [sp], #4
.L815:
	mvn	r5, #94
	b	.L810
.L818:
	movw	r0, #:lower16:.LC17
	ldrb	r3, [r4, #1]	@ zero_extendqisi2
	str	r5, [sp]
	ldr	r1, .L819
	movt	r0, #:upper16:.LC17
	ldrb	r2, [r4]	@ zero_extendqisi2
	bl	printk
	b	.L810
.L820:
	.align	2
.L819:
	.word	.LANCHOR2+112
	.fnend
	.size	ecm_qc_setup, .-ecm_qc_setup
	.align	2
	.syntax unified
	.arm
	.fpu softvfp
	.type	mbim_ep0out_complete, %function
mbim_ep0out_complete:
	.fnstart
	@ args = 0, pretend = 0, frame = 0
	@ frame_needed = 0, uses_anonymous_args = 0
	.save {r4, lr}
	str	r4, [sp, #-8]!
	mov	r3, #0
	mov	r4, r0
	str	lr, [sp, #4]
	ldr	r0, [r1, #32]
	ldr	r2, [r1, #44]
	str	r3, [r1, #32]
	cmp	r2, r3
	bne	.L822
	ldr	ip, [r1, #4]
	ldr	r3, [r1, #48]
	cmp	r3, ip
	bne	.L822
	cmp	r3, #4
	beq	.L834
	cmp	r3, #8
	bne	.L828
	ldr	r3, [r1]
	ldr	r2, [r3]	@ unaligned
	cmp	r2, #2048
	bcc	.L829
	movw	r1, #:lower16:.LANCHOR0
	movt	r1, #:upper16:.LANCHOR0
	ldr	r1, [r1, #52]
	cmp	r1, r2
	bcc	.L829
	ldrb	r1, [r3, #5]	@ zero_extendqisi2
	ldrb	r3, [r3, #4]	@ zero_extendqisi2
	orr	r3, r3, r1, lsl #8
	strh	r3, [r0, #228]	@ movhi
.L827:
	str	r2, [r0, #224]
	ldr	r4, [sp]
	add	sp, sp, #4
	ldr	pc, [sp], #4
.L834:
	ldr	r3, [r1]
	ldr	r2, [r3]	@ unaligned
	cmp	r2, #2048
	bcc	.L829
	movw	r3, #:lower16:.LANCHOR0
	movt	r3, #:upper16:.LANCHOR0
	ldr	r3, [r3, #52]
	cmp	r3, r2
	bcs	.L827
.L829:
	movw	r0, #:lower16:.LC19
	ldr	r1, .L835
	movt	r0, #:upper16:.LC19
	bl	printk
.L824:
	ldr	r3, [r4, #8]
	mov	r0, r4
	mov	r1, #1
	ldr	r3, [r3, #24]
	blx	r3
	ldr	r2, .L835
	movw	r0, #:lower16:.LC21
	ldr	r4, [sp]
	movt	r0, #:upper16:.LC21
	ldr	lr, [sp, #4]
	add	sp, sp, #8
	mov	r1, r2
	b	printk
.L822:
	movw	r0, #:lower16:.LC18
	ldr	r1, .L835
	movt	r0, #:upper16:.LC18
	bl	printk
	b	.L824
.L828:
	movw	r0, #:lower16:.LC20
	ldr	r1, .L835
	movt	r0, #:upper16:.LC20
	bl	printk
	b	.L824
.L836:
	.align	2
.L835:
	.word	.LANCHOR2+128
	.fnend
	.size	mbim_ep0out_complete, .-mbim_ep0out_complete
	.align	2
	.syntax unified
	.arm
	.fpu softvfp
	.type	bam_data_stop, %function
bam_data_stop:
	.fnstart
	@ args = 0, pretend = 0, frame = 0
	@ frame_needed = 0, uses_anonymous_args = 0
	cmp	r1, #0
	.save {r4, lr}
	str	r4, [sp, #-8]!
	str	lr, [sp, #4]
	ldr	r3, [r0, #4]
	beq	.L853
	cmp	r3, #0
	beq	.L837
	ldr	r3, [r3, #8]
	ldr	r1, [r0, #40]
	ldr	r2, [r3, #8]
	mov	r0, r3
	ldr	r3, [r2, #20]
	blx	r3
	subs	r3, r0, #0
	bne	.L854
.L837:
	ldr	r4, [sp]
	add	sp, sp, #4
	ldr	pc, [sp], #4
.L853:
	cmp	r3, #0
	beq	.L837
	ldr	r3, [r3, #12]
	ldr	r1, [r0, #36]
	ldr	r2, [r3, #8]
	mov	r0, r3
	ldr	r3, [r2, #20]
	blx	r3
	subs	r3, r0, #0
	ldrne	r2, .L855
	beq	.L837
.L852:
	movw	r0, #:lower16:.LC22
	ldr	r4, [sp]
	mov	r1, r2
	ldr	lr, [sp, #4]
	movt	r0, #:upper16:.LC22
	add	sp, sp, #8
	b	printk
.L854:
	ldr	r2, .L855+4
	b	.L852
.L856:
	.align	2
.L855:
	.word	.LANCHOR2+152
	.word	.LANCHOR2+180
	.fnend
	.size	bam_data_stop, .-bam_data_stop
	.align	2
	.syntax unified
	.arm
	.fpu softvfp
	.type	rndis_qc_response_complete, %function
rndis_qc_response_complete:
	.fnstart
	@ args = 0, pretend = 0, frame = 0
	@ frame_needed = 0, uses_anonymous_args = 0
	strd	r4, [sp, #-16]!
	.save {r4, r5, r6, lr}
	str	r6, [sp, #8]
	str	lr, [sp, #12]
	ldr	r5, [r1, #32]
	.pad #8
	sub	sp, sp, #8
	ldr	r3, [r1, #44]
	ldr	r2, [r5, #20]
	cmp	r2, #0
	beq	.L858
	ldr	r2, [r2, #24]
	cmp	r2, #0
	beq	.L858
	cmn	r3, #104
	beq	.L861
	cmp	r3, #0
	mov	r6, r0
	mov	r4, r1
	bne	.L886
.L862:
	ldr	r3, [r5, #156]
	cmp	r3, r6
	beq	.L887
.L857:
	add	sp, sp, #8
	@ sp needed
	ldrd	r4, [sp]
	ldr	r6, [sp, #8]
	add	sp, sp, #12
	ldr	pc, [sp], #4
.L886:
	cmn	r3, #108
	beq	.L861
	ldr	r1, [r1, #4]
	movw	r0, #:lower16:.LC24
	ldr	ip, [r4, #48]
	movt	r0, #:upper16:.LC24
	ldr	r2, [r6, #4]
	str	ip, [sp]
	str	r1, [sp, #4]
	ldr	r1, .L888
	bl	printk
	b	.L862
.L861:
	mov	r3, #0
	str	r3, [r5, #164]
	b	.L857
.L887:
	add	r6, r5, #164
	.syntax divided
@ 99 "/home/pascua14/Desktop/s5-kernel/arch/arm/include/asm/atomic.h" 1
	dmb
@ 0 "" 2
@ 101 "/home/pascua14/Desktop/s5-kernel/arch/arm/include/asm/atomic.h" 1
	@ atomic_sub_return
1:	ldrex	r3, [r6]
	sub	r3, r3, #1
	strex	r2, r3, [r6]
	teq	r2, #0
	bne	1b
@ 0 "" 2
@ 111 "/home/pascua14/Desktop/s5-kernel/arch/arm/include/asm/atomic.h" 1
	dmb
@ 0 "" 2
	.arm
	.syntax unified
	cmp	r3, #0
	beq	.L857
	ldr	r0, [r5, #156]
	mov	r1, r4
	mov	r2, #32
	ldr	r3, [r0, #8]
	ldr	r3, [r3, #16]
	blx	r3
	cmp	r0, #0
	beq	.L857
	.syntax divided
@ 83 "/home/pascua14/Desktop/s5-kernel/arch/arm/include/asm/atomic.h" 1
	@ atomic_sub
1:	ldrex	r3, [r6]
	sub	r3, r3, #1
	strex	r2, r3, [r6]
	teq	r2, #0
	bne	1b
@ 0 "" 2
	.arm
	.syntax unified
	b	.L857
.L858:
	ldr	r2, .L888
	movw	r0, #:lower16:.LC23
	movt	r0, #:upper16:.LC23
	mov	r1, r2
	add	sp, sp, #8
	@ sp needed
	ldrd	r4, [sp]
	ldr	r6, [sp, #8]
	ldr	lr, [sp, #12]
	add	sp, sp, #16
	b	printk
.L889:
	.align	2
.L888:
	.word	.LANCHOR2+208
	.fnend
	.size	rndis_qc_response_complete, .-rndis_qc_response_complete
	.align	2
	.syntax unified
	.arm
	.fpu softvfp
	.type	rndis_qc_response_available, %function
rndis_qc_response_available:
	.fnstart
	@ args = 0, pretend = 0, frame = 0
	@ frame_needed = 0, uses_anonymous_args = 0
	strd	r4, [sp, #-16]!
	.save {r4, r5, r6, lr}
	add	r5, r0, #164
	str	r6, [sp, #8]
	str	lr, [sp, #12]
	ldr	r1, [r0, #160]
	ldr	ip, [r1]
	.syntax divided
@ 61 "/home/pascua14/Desktop/s5-kernel/arch/arm/include/asm/atomic.h" 1
	dmb
@ 0 "" 2
@ 63 "/home/pascua14/Desktop/s5-kernel/arch/arm/include/asm/atomic.h" 1
	@ atomic_add_return
1:	ldrex	r3, [r5]
	add	r3, r3, #1
	strex	r2, r3, [r5]
	teq	r2, #0
	bne	1b
@ 0 "" 2
@ 73 "/home/pascua14/Desktop/s5-kernel/arch/arm/include/asm/atomic.h" 1
	dmb
@ 0 "" 2
	.arm
	.syntax unified
	cmp	r3, #1
	bne	.L890
	mov	r4, r0
	mov	r0, #0
	str	r3, [ip]
	mov	r2, #32
	str	r0, [ip, #4]
	ldr	r0, [r4, #156]
	ldr	r3, [r0, #8]
	ldr	r3, [r3, #16]
	blx	r3
	subs	r2, r0, #0
	bne	.L898
.L890:
	ldrd	r4, [sp]
	ldr	r6, [sp, #8]
	add	sp, sp, #12
	ldr	pc, [sp], #4
.L898:
	.syntax divided
@ 83 "/home/pascua14/Desktop/s5-kernel/arch/arm/include/asm/atomic.h" 1
	@ atomic_sub
1:	ldrex	r3, [r5]
	sub	r3, r3, #1
	strex	r1, r3, [r5]
	teq	r1, #0
	bne	1b
@ 0 "" 2
	.arm
	.syntax unified
	movw	r0, #:lower16:.LC25
	ldrd	r4, [sp]
	ldr	r6, [sp, #8]
	movt	r0, #:upper16:.LC25
	ldr	lr, [sp, #12]
	add	sp, sp, #16
	ldr	r1, .L899
	b	printk
.L900:
	.align	2
.L899:
	.word	.LANCHOR2+236
	.fnend
	.size	rndis_qc_response_available, .-rndis_qc_response_available
	.align	2
	.syntax unified
	.arm
	.fpu softvfp
	.type	f_audio_buffer_alloc, %function
f_audio_buffer_alloc:
	.fnstart
	@ args = 0, pretend = 0, frame = 0
	@ frame_needed = 0, uses_anonymous_args = 0
	movw	r3, #:lower16:kmalloc_caches
	strd	r4, [sp, #-16]!
	.save {r4, r5, r6, lr}
	mov	r5, r0
	movt	r3, #:upper16:kmalloc_caches
	str	r6, [sp, #8]
	str	lr, [sp, #12]
	ldr	r0, [r3, #24]
	cmp	r0, #0
	beq	.L904
	mov	r2, #16
	movw	r1, #32800
	bl	kmem_cache_alloc_trace
	subs	r4, r0, #0
	beq	.L906
.L902:
	mov	r0, r5
	movw	r1, #32800
	bl	__kmalloc
	cmp	r0, #0
	str	r0, [r4]
	beq	.L907
.L901:
	mov	r0, r4
	ldrd	r4, [sp]
	ldr	r6, [sp, #8]
	add	sp, sp, #12
	ldr	pc, [sp], #4
.L904:
	mov	r4, #16
	b	.L902
.L907:
	movw	r0, #:lower16:.LC27
	ldr	r1, .L908
	movt	r0, #:upper16:.LC27
	bl	printk
	mov	r0, r4
	mvn	r4, #11
	bl	kfree
	b	.L901
.L906:
	movw	r0, #:lower16:.LC26
	ldr	r1, .L908
	mvn	r4, #11
	movt	r0, #:upper16:.LC26
	bl	printk
	b	.L901
.L909:
	.align	2
.L908:
	.word	.LANCHOR2+264
	.fnend
	.size	f_audio_buffer_alloc, .-f_audio_buffer_alloc
	.align	2
	.syntax unified
	.arm
	.fpu softvfp
	.type	f_audio_setup, %function
f_audio_setup:
	.fnstart
	@ args = 0, pretend = 0, frame = 8
	@ frame_needed = 0, uses_anonymous_args = 0
	strd	r4, [sp, #-24]!
	.save {r4, r5, r6, r7, r8, lr}
	strd	r6, [sp, #8]
	mov	r7, r0
	str	r8, [sp, #16]
	str	lr, [sp, #20]
	ldr	r3, [r0, #20]
	.pad #24
	sub	sp, sp, #24
	ldrb	r2, [r1]	@ zero_extendqisi2
	ldrh	ip, [r1, #4]	@ unaligned
	ldrh	lr, [r1, #2]	@ unaligned
	ldr	r6, [r3, #24]
	cmp	r2, #34
	ldrh	r5, [r1, #6]	@ unaligned
	ldrb	r3, [r1, #1]	@ zero_extendqisi2
	ldr	r4, [r6, #4]
	beq	.L912
	bls	.L969
	cmp	r2, #161
	beq	.L915
	cmp	r2, #162
	bne	.L911
	ldr	r2, [r7, #260]!
	and	ip, ip, #127
	lsr	lr, lr, #8
	cmp	r7, r2
	beq	.L932
	ldrb	r1, [r2, #16]	@ zero_extendqisi2
	cmp	r1, ip
	bne	.L952
.L944:
	ldr	ip, [r2, #8]!
	cmp	r2, ip
	beq	.L932
	ldrb	r1, [ip, #12]	@ zero_extendqisi2
	cmp	r1, lr
	beq	.L947
.L951:
	ldr	ip, [ip]
	cmp	r2, ip
	beq	.L932
	ldrb	r1, [ip, #12]	@ zero_extendqisi2
	cmp	lr, r1
	bne	.L951
.L947:
	and	r3, r3, #15
	sub	r2, r3, #1
	cmp	r2, #3
	bhi	.L932
	add	r3, r3, #4
	add	r1, sp, #24
	ldr	r0, [r4]
	ldr	r3, [ip, r3, lsl #2]
	mov	r2, r5
	str	r3, [r1, #-4]!
	bl	memcpy
	b	.L924
.L915:
	ldr	r2, [r0, #252]!
	mvn	r1, #94
	lsr	ip, ip, #8
	str	r1, [sp, #20]
	cmp	r2, r0
	beq	.L925
	ldrb	r1, [r2, #16]	@ zero_extendqisi2
	cmp	r1, ip
	bne	.L927
	b	.L926
.L930:
	ldrb	r1, [r2, #16]	@ zero_extendqisi2
	cmp	ip, r1
	beq	.L926
.L927:
	ldr	r2, [r2]
	cmp	r2, r0
	bne	.L930
.L925:
	movw	r3, #:lower16:f_audio_complete
	mov	r2, r5
	ldr	r0, [r4]
	movt	r3, #:upper16:f_audio_complete
	add	r1, sp, #20
	str	r3, [r4, #28]
	str	r7, [r4, #32]
	bl	memcpy
.L924:
	ldrb	r3, [r4, #26]	@ zero_extendqisi2
	str	r5, [r4, #4]
	mov	r1, r4
	mov	r2, #32
	orr	r3, r3, #2
	strb	r3, [r4, #26]
	ldr	r3, [r6]
	ldr	r0, [r3, #4]
	ldr	r3, [r0, #8]
	ldr	r3, [r3, #16]
	blx	r3
	subs	r4, r0, #0
	blt	.L970
.L910:
	mov	r0, r4
	add	sp, sp, #24
	@ sp needed
	ldrd	r4, [sp]
	ldrd	r6, [sp, #8]
	ldr	r8, [sp, #16]
	add	sp, sp, #20
	ldr	pc, [sp], #4
.L945:
	ldrb	r1, [r2, #16]	@ zero_extendqisi2
	cmp	ip, r1
	beq	.L944
.L952:
	ldr	r2, [r2]
	cmp	r7, r2
	bne	.L945
	b	.L932
.L969:
	cmp	r2, #33
	bne	.L911
	mov	r8, r0
	lsr	ip, ip, #8
	ldr	r2, [r8, #252]!
	and	r3, r3, #15
	cmp	r2, r8
	beq	.L917
	ldrb	r1, [r2, #16]	@ zero_extendqisi2
	cmp	r1, ip
	bne	.L919
	b	.L918
.L923:
	ldrb	r0, [r2, #16]	@ zero_extendqisi2
	cmp	ip, r0
	beq	.L918
.L919:
	ldr	r2, [r2]
	cmp	r2, r8
	bne	.L923
.L917:
	movw	r2, #:lower16:f_audio_complete
	strb	r3, [r7, #268]
	movt	r2, #:upper16:f_audio_complete
	str	r2, [r4, #28]
	str	r7, [r4, #32]
	b	.L924
.L912:
	mov	r1, r0
	and	ip, ip, #127
	ldr	r2, [r1, #260]!
	lsr	lr, lr, #8
	cmp	r1, r2
	beq	.L932
	ldrb	r0, [r2, #16]	@ zero_extendqisi2
	cmp	r0, ip
	bne	.L941
.L933:
	ldr	r0, [r2, #8]!
	cmp	r0, r2
	beq	.L932
	ldrb	r1, [r0, #12]	@ zero_extendqisi2
	cmp	r1, lr
	beq	.L936
.L940:
	ldr	r0, [r0]
	cmp	r0, r2
	beq	.L932
	ldrb	r1, [r0, #12]	@ zero_extendqisi2
	cmp	lr, r1
	bne	.L940
.L936:
	ands	r3, r3, #15
	beq	.L938
	cmp	r3, #4
	bls	.L939
	cmp	r3, #5
	bne	.L938
.L932:
	movw	r0, #:lower16:.LC31
	ldr	r1, .L971
	mvn	r4, #94
	movt	r0, #:upper16:.LC31
	bl	printk
	b	.L910
.L934:
	ldrb	r0, [r2, #16]	@ zero_extendqisi2
	cmp	ip, r0
	beq	.L933
.L941:
	ldr	r2, [r2]
	cmp	r1, r2
	bne	.L934
	b	.L932
.L926:
	ldr	r0, [r2, #8]!
	cmp	r0, r2
	beq	.L925
	lsr	lr, lr, #8
	b	.L929
.L928:
	ldr	r0, [r0]
	cmp	r0, r2
	beq	.L925
.L929:
	ldrb	r1, [r0, #12]	@ zero_extendqisi2
	cmp	r1, lr
	bne	.L928
	ldr	r8, [r0, #40]
	cmp	r8, #0
	beq	.L928
	and	r1, r3, #15
	blx	r8
	str	r0, [sp, #20]
	b	.L925
.L918:
	ldr	r0, [r2, #8]!
	cmp	r0, r2
	beq	.L917
	ldrb	r1, [r0, #12]	@ zero_extendqisi2
	lsr	lr, lr, #8
	cmp	r1, lr
	bne	.L921
	b	.L920
.L922:
	ldrb	ip, [r0, #12]	@ zero_extendqisi2
	cmp	lr, ip
	beq	.L920
.L921:
	ldr	r0, [r0]
	cmp	r0, r2
	bne	.L922
	b	.L917
.L939:
	movw	r2, #:lower16:audio_set_endpoint_complete
	strb	r3, [r7, #268]
	movt	r2, #:upper16:audio_set_endpoint_complete
	str	r0, [r7, #272]
	str	r2, [r4, #28]
	str	r7, [r4, #32]
	b	.L924
.L920:
	str	r0, [r7, #272]
	b	.L917
.L911:
	movw	r0, #:lower16:.LC29
	ldr	r1, .L971
	str	lr, [sp]
	str	ip, [sp, #4]
	movt	r0, #:upper16:.LC29
	str	r5, [sp, #8]
	bl	printk
	b	.L932
.L970:
	movw	r0, #:lower16:.LC30
	mov	r2, r4
	ldr	r1, .L971
	movt	r0, #:upper16:.LC30
	bl	printk
	b	.L910
.L938:
	movw	r0, #:lower16:.LC28
	ldr	r1, .L971+4
	movt	r0, #:upper16:.LC28
	bl	printk
	b	.L932
.L972:
	.align	2
.L971:
	.word	.LANCHOR2+312
	.word	.LANCHOR2+288
	.fnend
	.size	f_audio_setup, .-f_audio_setup
	.align	2
	.syntax unified
	.arm
	.fpu softvfp
	.type	conn_gadget_release, %function
conn_gadget_release:
	.fnstart
	@ args = 0, pretend = 0, frame = 0
	@ frame_needed = 0, uses_anonymous_args = 0
	strd	r4, [sp, #-24]!
	.save {r4, r5, r6, r7, r8, lr}
	movw	r0, #:lower16:.LC32
	movw	r4, #:lower16:.LANCHOR1
	movt	r4, #:upper16:.LANCHOR1
	movt	r0, #:upper16:.LC32
	strd	r6, [sp, #8]
	str	r8, [sp, #16]
	str	lr, [sp, #20]
	bl	printk
	ldr	r0, [r4, #2516]
	add	r0, r0, #88
	bl	_raw_spin_lock_irqsave
	mov	r1, r0
	ldr	r0, [r4, #2516]
	mov	r3, r0
	ldr	ip, [r3, #136]!
	cmp	ip, r3
	bne	.L978
.L974:
	add	r0, r0, #88
	bl	_raw_spin_unlock_irqrestore
	ldr	r3, [r4, #2516]
	mov	r0, #0
	add	r2, r3, #116
	str	r0, [r3, #216]
	.syntax divided
@ 83 "/home/pascua14/Desktop/s5-kernel/arch/arm/include/asm/atomic.h" 1
	@ atomic_sub
1:	ldrex	r1, [r2]
	sub	r1, r1, #1
	strex	ip, r1, [r2]
	teq	ip, #0
	bne	1b
@ 0 "" 2
	.arm
	.syntax unified
	ldrd	r4, [sp]
	ldrd	r6, [sp, #8]
	ldr	r8, [sp, #16]
	add	sp, sp, #20
	ldr	pc, [sp], #4
.L978:
	ldr	r6, [ip]
	sub	r3, ip, #36
	movw	r7, #:lower16:.LC33
	mov	r5, r3
	movt	r7, #:upper16:.LC33
	sub	r6, r6, #36
.L975:
	add	r0, r0, #88
	bl	_raw_spin_unlock_irqrestore
	mov	r0, r7
	bl	printk
	ldr	r3, [r4, #2516]
	mov	r1, r5
	mov	r5, r6
	ldr	r0, [r3, #96]
	ldr	r3, [r0, #8]
	ldr	r3, [r3, #20]
	blx	r3
	ldr	r0, [r4, #2516]
	add	r0, r0, #88
	bl	_raw_spin_lock_irqsave
	mov	r1, r0
	ldr	r0, [r4, #2516]
	ldr	r3, [r6, #36]!
	add	r2, r0, #136
	cmp	r6, r2
	sub	r6, r3, #36
	beq	.L974
	b	.L975
	.fnend
	.size	conn_gadget_release, .-conn_gadget_release
	.align	2
	.syntax unified
	.arm
	.fpu softvfp
	.type	ncm_setup, %function
ncm_setup:
	.fnstart
	@ args = 0, pretend = 0, frame = 0
	@ frame_needed = 0, uses_anonymous_args = 0
	strd	r4, [sp, #-20]!
	.save {r4, r5, r6, r7, lr}
	mov	r4, r1
	movw	ip, #8586
	strd	r6, [sp, #8]
	str	lr, [sp, #16]
	ldrh	r3, [r1]	@ unaligned
	mov	lr, r0
	ldrh	r7, [r1, #4]	@ unaligned
	.pad #12
	sub	sp, sp, #12
	ldrh	r2, [r1, #6]	@ unaligned
	ldr	r1, [r0, #20]
	rev16	r3, r3
	ldrh	r0, [r4, #2]	@ unaligned
	uxth	r3, r3
	ldr	r5, [r1, #24]
	cmp	r3, ip
	uxth	r1, r0
	ldr	r6, [r5, #4]
	beq	.L981
	bls	.L1026
	movw	r0, #41349
	cmp	r3, r0
	beq	.L988
	bhi	.L989
	movw	r0, #41344
	cmp	r3, r0
	beq	.L990
	movw	r0, #41347
	cmp	r3, r0
	bne	.L1022
	adds	r1, r1, #0
	movne	r1, #1
	cmp	r2, #1
	movhi	r2, r1
	orrls	r2, r1, #1
	cmp	r2, #0
	bne	.L1022
	ldrb	r3, [lr, #148]	@ zero_extendqisi2
	cmp	r3, r7
	bne	.L1022
	ldr	r3, [lr, #176]
	mov	r1, #2
	ldr	ip, .L1030
	ldr	r0, [r6]
	subs	r3, r3, ip
	movne	r3, #1
	strb	r3, [r0]
	strb	r2, [r0, #1]
	b	.L994
.L1026:
	movw	ip, #8580
	cmp	r3, ip
	beq	.L983
	bls	.L1027
	movw	r0, #8582
	cmp	r3, r0
	beq	.L986
	movw	r0, #8584
	cmp	r3, r0
	bne	.L1022
	cmp	r1, #0
	cmpeq	r2, #2
	bne	.L1022
	ldrb	r3, [lr, #148]	@ zero_extendqisi2
	cmp	r3, r7
	bne	.L1022
	movw	r3, #:lower16:ncm_setdgram_complete
	mov	r1, #2
	str	lr, [r6, #32]
	movt	r3, #:upper16:ncm_setdgram_complete
	str	r3, [r6, #28]
.L994:
	ldrb	r3, [r6, #26]	@ zero_extendqisi2
	str	r1, [r6, #4]
	mov	r2, #32
	mov	r1, r6
	bfc	r3, #1, #1
	strb	r3, [r6, #26]
	ldr	r3, [r5]
	ldr	r0, [r3, #4]
	ldr	r3, [r0, #8]
	ldr	r3, [r3, #16]
	blx	r3
	subs	r6, r0, #0
	blt	.L1028
.L979:
	mov	r0, r6
	add	sp, sp, #12
	@ sp needed
	ldrd	r4, [sp]
	ldrd	r6, [sp, #8]
	add	sp, sp, #16
	ldr	pc, [sp], #4
.L989:
	movw	r0, #41351
	cmp	r3, r0
	beq	.L992
	movw	r0, #41353
	cmp	r3, r0
	bne	.L1022
	adds	r1, r1, #0
	movne	r1, #1
	cmp	r2, #1
	movhi	r2, r1
	orrls	r2, r1, #1
	cmp	r2, #0
	bne	.L1022
	ldrb	r3, [lr, #148]	@ zero_extendqisi2
	cmp	r3, r7
	bne	.L1022
	ldrb	r0, [lr, #180]	@ zero_extendqisi2
	mov	r1, #2
	ldr	r3, [r6]
	strb	r0, [r3]
	strb	r2, [r3, #1]
	b	.L994
.L992:
	adds	r1, r1, #0
	movne	r1, #1
	cmp	r2, #1
	orrls	r1, r1, #1
	cmp	r1, #0
	bne	.L1022
	ldrb	r3, [lr, #148]	@ zero_extendqisi2
	cmp	r3, r7
	beq	.L1029
.L1022:
	mvn	r6, #94
	b	.L979
.L986:
	cmp	r1, #0
	cmpeq	r2, #4
	bne	.L1022
	ldrb	r3, [lr, #148]	@ zero_extendqisi2
	cmp	r3, r7
	bne	.L1022
	movw	r3, #:lower16:ncm_ep0out_complete
	mov	r1, #4
	str	lr, [r6, #32]
	movt	r3, #:upper16:ncm_ep0out_complete
	str	r3, [r6, #28]
	b	.L994
.L990:
	adds	r1, r1, #0
	movne	r1, #1
	cmp	r2, #0
	moveq	r1, #1
	cmp	r1, #0
	bne	.L1022
	ldrb	r3, [lr, #148]	@ zero_extendqisi2
	cmp	r3, r7
	bne	.L1022
	cmp	r2, #28
	ldr	r1, .L1030+4
	movcc	r7, r2
	movcs	r7, #28
	ldr	r0, [r6]
	mov	r2, r7
	bl	memcpy
	mov	r1, r7
	b	.L994
.L1028:
	ldr	r0, [r5]
	movw	r1, #:lower16:.LC35
	str	r6, [sp]
	movt	r1, #:upper16:.LC35
	ldrb	r3, [r4, #1]	@ zero_extendqisi2
	ldrb	r2, [r4]	@ zero_extendqisi2
	add	r0, r0, #32
	bl	dev_err
	b	.L979
.L1027:
	movw	r1, #8515
	cmp	r3, r1
	bne	.L1022
	cmp	r2, #0
	bne	.L1022
	ldrb	r3, [lr, #148]	@ zero_extendqisi2
	cmp	r3, r7
	bne	.L1022
	mov	r1, r2
	strh	r0, [lr, #98]	@ movhi
	b	.L994
.L983:
	cmp	r2, #0
	bne	.L1022
	ldrb	r3, [lr, #148]	@ zero_extendqisi2
	cmp	r3, r7
	bne	.L1022
	cmp	r1, #0
	beq	.L995
	cmp	r1, #1
	bne	.L1022
	ldr	r3, .L1030+8
	mov	r1, r2
	str	r3, [lr, #176]
	b	.L994
.L988:
	adds	r1, r1, #0
	movne	r1, #1
	cmp	r2, #3
	orrls	r1, r1, #1
	cmp	r1, #0
	bne	.L1022
	ldrb	r3, [lr, #148]	@ zero_extendqisi2
	cmp	r3, r7
	bne	.L1022
	ldr	r2, [lr, #112]
	mov	r1, #4
	ldr	r3, [r6]
	lsr	r0, r2, #16
	ubfx	ip, r2, #8, #8
	strb	r2, [r3]
	lsr	r2, r0, #8
	strb	ip, [r3, #1]
	strb	r0, [r3, #2]
	strb	r2, [r3, #3]
	b	.L994
.L981:
	cmp	r2, #0
	bne	.L1022
	ldrb	r3, [lr, #148]	@ zero_extendqisi2
	cmp	r3, r7
	bne	.L1022
	cmp	r1, #0
	beq	.L997
	cmp	r1, #1
	bne	.L1022
	mov	ip, #16777216
	strb	r1, [lr, #180]
.L999:
	ldr	r0, [lr, #176]
	mov	r1, #0
	ldr	r2, [r0, #4]
	bic	r2, r2, #16777216
	str	r2, [r0, #4]
	ldr	r2, [lr, #176]
	ldr	r3, [r2, #4]
	orr	r3, r3, ip
	str	r3, [r2, #4]
	b	.L994
.L997:
	mov	ip, r1
	strb	r1, [lr, #180]
	b	.L999
.L995:
	ldr	r3, .L1030
	str	r3, [lr, #176]
	b	.L994
.L1029:
	ldrh	r2, [lr, #182]
	movw	r0, #:lower16:.LC34
	ldr	r3, [r6]
	movt	r0, #:upper16:.LC34
	ldr	r1, .L1030+12
	lsr	ip, r2, #8
	strb	r2, [r3]
	strb	ip, [r3, #1]
	ldrh	r2, [lr, #182]
	bl	printk
	mov	r1, #2
	b	.L994
.L1031:
	.align	2
.L1030:
	.word	.LANCHOR0+76
	.word	.LANCHOR0+20
	.word	.LANCHOR0+120
	.word	.LANCHOR2+328
	.fnend
	.size	ncm_setup, .-ncm_setup
	.align	2
	.syntax unified
	.arm
	.fpu softvfp
	.type	ncm_setdgram_complete, %function
ncm_setdgram_complete:
	.fnstart
	@ args = 0, pretend = 0, frame = 0
	@ frame_needed = 0, uses_anonymous_args = 0
	movw	r3, #:lower16:.LANCHOR0
	strd	r4, [sp, #-16]!
	.save {r4, r5, r6, lr}
	mov	r4, r0
	movt	r3, #:upper16:.LANCHOR0
	str	r6, [sp, #8]
	mov	r5, #0
	str	lr, [sp, #12]
	ldr	r2, [r3, #24]
	ldr	r0, [r3, #36]
	ldr	ip, [r1, #32]
	str	r5, [r1, #32]
	ldr	lr, [r1, #44]
	cmp	r0, r2
	movcs	r0, r2
	cmp	lr, r5
	bne	.L1033
	ldr	r2, [r1, #4]
	ldr	lr, [r1, #48]
	cmp	lr, r2
	bne	.L1033
	ldr	r1, [r1]
	movw	lr, #7500
	ldrb	r5, [r1, #1]	@ zero_extendqisi2
	ldrb	r2, [r1]	@ zero_extendqisi2
	orr	r2, r2, r5, lsl #8
	sub	r1, r2, #1504
	sub	r1, r1, #10
	cmp	r1, lr
	bhi	.L1043
	ldrh	r1, [r3, #44]
	add	r3, r1, #11
	rsb	r1, r1, #0
	and	r3, r3, r1
	add	r3, r3, #12
	add	r3, r3, r2
	cmp	r3, r0
	bhi	.L1044
	ldr	r3, [ip, #184]
	strh	r2, [ip, #182]	@ movhi
	movw	r0, #:lower16:.LC40
	movt	r0, #:upper16:.LC40
	cmp	r3, #0
	subne	r1, r2, #14
	strne	r1, [r3, #316]
	ldr	r1, .L1045
	ldrd	r4, [sp]
	ldr	r6, [sp, #8]
	ldr	lr, [sp, #12]
	add	sp, sp, #16
	b	printk
.L1044:
	movw	r0, #:lower16:.LC38
	ldr	r1, .L1045
	movt	r0, #:upper16:.LC38
	bl	printk
	movw	r0, #:lower16:.LC39
	movt	r0, #:upper16:.LC39
	bl	printk
.L1035:
	ldr	r3, [r4, #8]
	mov	r0, r4
	mov	r1, #1
	ldrd	r4, [sp]
	ldr	r6, [sp, #8]
	ldr	lr, [sp, #12]
	add	sp, sp, #16
	ldr	r3, [r3, #24]
	bx	r3
.L1033:
	movw	r0, #:lower16:.LC36
	ldr	r1, .L1045
	movt	r0, #:upper16:.LC36
	bl	printk
	b	.L1035
.L1043:
	movw	r0, #:lower16:.LC37
	ldr	r1, .L1045
	movt	r0, #:upper16:.LC37
	bl	printk
	b	.L1035
.L1046:
	.align	2
.L1045:
	.word	.LANCHOR2+340
	.fnend
	.size	ncm_setdgram_complete, .-ncm_setdgram_complete
	.align	2
	.syntax unified
	.arm
	.fpu softvfp
	.type	android_enable_function, %function
android_enable_function:
	.fnstart
	@ args = 0, pretend = 0, frame = 8
	@ frame_needed = 0, uses_anonymous_args = 0
	strd	r4, [sp, #-36]!
	.save {r4, r5, r6, r7, r8, r9, r10, fp, lr}
	strd	r6, [sp, #8]
	mov	r7, r1
	strd	r8, [sp, #16]
	movw	r9, #:lower16:.LC41
	strd	r10, [sp, #24]
	mov	r10, r2
	mov	fp, r0
	str	lr, [sp, #32]
	.pad #12
	sub	sp, sp, #12
	ldr	r6, [r0, #4]
	ldr	r2, [r0, #8]
	movt	r9, #:upper16:.LC41
	ldr	r3, [r0, #48]
	sub	r6, r6, #4
	str	r3, [sp]
	ldr	r3, [r2]
	str	r3, [sp, #4]
.L1048:
	ldr	r5, [r6, #4]!
	mov	r0, r10
	cmp	r5, #0
	beq	.L1059
	ldr	r4, [r5]
	mov	r1, r4
	bl	strcmp
	subs	r8, r0, #0
	bne	.L1048
	ldr	r1, [r5, #20]
	cmp	r1, fp
	cmpne	r1, #0
	bne	.L1060
	movw	r2, #:lower16:kmalloc_caches
	movt	r2, #:upper16:kmalloc_caches
	ldr	r0, [r2, #24]
	cmp	r0, #0
	beq	.L1056
	mov	r2, #12
	movw	r1, #32976
	bl	kmem_cache_alloc_trace
	cmp	r0, #0
	beq	.L1061
.L1051:
	mov	r2, r0
	str	fp, [r5, #20]
	add	r1, r7, #112
	str	r5, [r2], #4
	ldr	r3, [r7, #116]
	str	r2, [r7, #116]
	stmib	r0, {r1, r3}
	str	r2, [r3]
	ldr	r2, [sp]
	ldr	r6, [r5]
	ldr	r3, [r2, #44]
	cmp	r3, #0
	ble	.L1047
	add	r3, r3, r3, lsl #2
	add	r4, r2, #12
	add	r5, r4, r3, lsl #1
	b	.L1054
.L1053:
	cmp	r5, r4
	beq	.L1047
.L1054:
	mov	r1, r4
	mov	r0, r6
	bl	strcmp
	cmp	r0, #0
	add	r4, r4, #10
	bne	.L1053
	ldr	r2, [sp, #4]
	mov	r3, #1
	mov	r8, r0
	strb	r3, [r2, #386]
.L1047:
	mov	r0, r8
	add	sp, sp, #12
	@ sp needed
	ldrd	r4, [sp]
	ldrd	r6, [sp, #8]
	ldrd	r8, [sp, #16]
	ldrd	r10, [sp, #24]
	add	sp, sp, #32
	ldr	pc, [sp], #4
.L1056:
	mov	r0, #16
	b	.L1051
.L1059:
	mvn	r8, #21
	b	.L1047
.L1060:
	mov	r2, r4
	ldr	r1, .L1062
	mov	r0, r9
	bl	printk
	b	.L1048
.L1061:
	movw	r0, #:lower16:.LC42
	ldr	r1, .L1062
	mvn	r8, #11
	movt	r0, #:upper16:.LC42
	bl	printk
	b	.L1047
.L1063:
	.align	2
.L1062:
	.word	.LANCHOR2+364
	.fnend
	.size	android_enable_function, .-android_enable_function
	.align	2
	.syntax unified
	.arm
	.fpu softvfp
	.type	acc_complete_set_string, %function
acc_complete_set_string:
	.fnstart
	@ args = 0, pretend = 0, frame = 0
	@ frame_needed = 0, uses_anonymous_args = 0
	strd	r4, [sp, #-24]!
	.save {r4, r5, r6, r7, r8, lr}
	strd	r6, [sp, #8]
	str	r8, [sp, #16]
	str	lr, [sp, #20]
	ldr	r3, [r1, #44]
	ldr	r0, [r0]
	ldr	r6, [r1, #48]
	cmp	r3, #0
	movwne	r0, #:lower16:.LC43
	movne	r1, r3
	movtne	r0, #:upper16:.LC43
	bne	.L1079
	ldr	r3, [r0, #1640]
	cmp	r3, #5
	ldrls	pc, [pc, r3, asl #2]
	b	.L1066
.L1068:
	.word	.L1067
	.word	.L1069
	.word	.L1070
	.word	.L1071
	.word	.L1072
	.word	.L1073
.L1073:
	add	r7, r0, #1376
	add	r7, r7, #5
.L1074:
	cmp	r7, #0
	beq	.L1066
	add	r4, r0, #88
	mov	r5, r1
	mov	r0, r4
	bl	_raw_spin_lock_irqsave
	cmp	r6, #255
	mov	r8, r0
	ldr	r1, [r5]
	movge	r6, #255
	mov	r0, r7
	mov	r2, r6
	bl	memcpy
	mov	r3, #0
	mov	r1, r8
	mov	r0, r4
	strb	r3, [r7, r6]
	ldrd	r4, [sp]
	ldrd	r6, [sp, #8]
	ldr	r8, [sp, #16]
	ldr	lr, [sp, #20]
	add	sp, sp, #24
	b	_raw_spin_unlock_irqrestore
.L1067:
	add	r7, r0, #101
	b	.L1074
.L1069:
	add	r7, r0, #356
	add	r7, r7, #1
	b	.L1074
.L1070:
	add	r7, r0, #612
	add	r7, r7, #1
	b	.L1074
.L1071:
	add	r7, r0, #868
	add	r7, r7, #1
	b	.L1074
.L1072:
	add	r7, r0, #1120
	add	r7, r7, #5
	b	.L1074
.L1066:
	movw	r0, #:lower16:.LC44
	mov	r1, r3
	movt	r0, #:upper16:.LC44
.L1079:
	ldrd	r4, [sp]
	ldrd	r6, [sp, #8]
	ldr	r8, [sp, #16]
	ldr	lr, [sp, #20]
	add	sp, sp, #24
	b	printk
	.fnend
	.size	acc_complete_set_string, .-acc_complete_set_string
	.align	2
	.syntax unified
	.arm
	.fpu softvfp
	.type	acc_release, %function
acc_release:
	.fnstart
	@ args = 0, pretend = 0, frame = 0
	@ frame_needed = 0, uses_anonymous_args = 0
	.save {r4, lr}
	str	r4, [sp, #-8]!
	movw	r0, #:lower16:.LC45
	movw	r4, #:lower16:.LANCHOR1
	movt	r4, #:upper16:.LANCHOR1
	movt	r0, #:upper16:.LC45
	str	lr, [sp, #4]
	bl	printk
	ldr	r3, [r4, #2520]
	add	r3, r3, #1648
	add	r3, r3, #4
	.syntax divided
@ 37 "/home/pascua14/Desktop/s5-kernel/arch/arm/include/asm/cmpxchg.h" 1
	dmb
@ 0 "" 2
	.arm
	.syntax unified
	mov	r2, #0
	.syntax divided
@ 52 "/home/pascua14/Desktop/s5-kernel/arch/arm/include/asm/cmpxchg.h" 1
	@	__xchg4
1:	ldrex	r1, [r3]
	strex	r0, r2, [r3]
	teq	r0, #0
	bne	1b
@ 0 "" 2
@ 98 "/home/pascua14/Desktop/s5-kernel/arch/arm/include/asm/cmpxchg.h" 1
	dmb
@ 0 "" 2
	.arm
	.syntax unified
	cmp	r1, r2
	beq	.L1083
.L1081:
	ldr	r3, [r4, #2520]
	mov	r0, #0
	ldrb	r2, [r3, #100]	@ zero_extendqisi2
	bfc	r2, #1, #1
	strb	r2, [r3, #100]
	ldr	r4, [sp]
	add	sp, sp, #4
	ldr	pc, [sp], #4
.L1083:
	movw	r0, #:lower16:.LC46
	movw	r1, #799
	movt	r0, #:upper16:.LC46
	bl	warn_slowpath_null
	b	.L1081
	.fnend
	.size	acc_release, .-acc_release
	.align	2
	.syntax unified
	.arm
	.fpu softvfp
	.type	acc_open, %function
acc_open:
	.fnstart
	@ args = 0, pretend = 0, frame = 0
	@ frame_needed = 0, uses_anonymous_args = 0
	movw	r0, #:lower16:.LC47
	.save {r4, lr}
	str	r4, [sp, #-8]!
	mov	r4, r1
	movt	r0, #:upper16:.LC47
	str	lr, [sp, #4]
	bl	printk
	movw	r2, #:lower16:.LANCHOR1
	movt	r2, #:upper16:.LANCHOR1
	ldr	r3, [r2, #2520]
	add	r3, r3, #1648
	add	r3, r3, #4
	.syntax divided
@ 37 "/home/pascua14/Desktop/s5-kernel/arch/arm/include/asm/cmpxchg.h" 1
	dmb
@ 0 "" 2
	.arm
	.syntax unified
	mov	r0, #1
	.syntax divided
@ 52 "/home/pascua14/Desktop/s5-kernel/arch/arm/include/asm/cmpxchg.h" 1
	@	__xchg4
1:	ldrex	ip, [r3]
	strex	r1, r0, [r3]
	teq	r1, #0
	bne	1b
@ 0 "" 2
@ 98 "/home/pascua14/Desktop/s5-kernel/arch/arm/include/asm/cmpxchg.h" 1
	dmb
@ 0 "" 2
	.arm
	.syntax unified
	cmp	ip, #0
	bne	.L1086
	ldr	r3, [r2, #2520]
	mov	r0, ip
	ldrb	r2, [r3, #100]	@ zero_extendqisi2
	bfi	r2, ip, #1, #1
	strb	r2, [r3, #100]
	str	r3, [r4, #124]
.L1084:
	ldr	r4, [sp]
	add	sp, sp, #4
	ldr	pc, [sp], #4
.L1086:
	mvn	r0, #15
	b	.L1084
	.fnend
	.size	acc_open, .-acc_open
	.align	2
	.syntax unified
	.arm
	.fpu softvfp
	.type	sua_version_info_store, %function
sua_version_info_store:
	.fnstart
	@ args = 0, pretend = 0, frame = 0
	@ frame_needed = 0, uses_anonymous_args = 0
	strd	r4, [sp, #-16]!
	.save {r4, r5, r6, lr}
	mov	r4, r3
	mov	r5, r2
	str	r6, [sp, #8]
	str	lr, [sp, #12]
	.pad #8
	sub	sp, sp, #8
	bl	dev_get_drvdata
	ldr	r6, [r0, #4]
	cmp	r4, #100
	mov	r1, r5
	movls	r2, r4
	movhi	r2, #100
	ldr	r0, [r6, #96]
	add	r0, r0, #235
	bl	memcpy
	ldr	ip, [r6, #96]
	movw	r0, #:lower16:.LC48
	mov	r2, r5
	ldr	r1, .L1092
	mov	r3, #4
	movt	r0, #:upper16:.LC48
	add	ip, ip, #235
	str	ip, [sp]
	bl	printk
	mov	r0, r4
	add	sp, sp, #8
	@ sp needed
	ldrd	r4, [sp]
	ldr	r6, [sp, #8]
	add	sp, sp, #12
	ldr	pc, [sp], #4
.L1093:
	.align	2
.L1092:
	.word	.LANCHOR2+388
	.fnend
	.size	sua_version_info_store, .-sua_version_info_store
	.align	2
	.syntax unified
	.arm
	.fpu softvfp
	.type	rndis_qc_release_dev, %function
rndis_qc_release_dev:
	.fnstart
	@ args = 0, pretend = 0, frame = 0
	@ frame_needed = 0, uses_anonymous_args = 0
	movw	r0, #:lower16:.LC49
	strd	r4, [sp, #-16]!
	.save {r4, r5, r6, lr}
	ldr	r1, .L1099
	movw	r4, #:lower16:.LANCHOR1
	movt	r0, #:upper16:.LC49
	str	r6, [sp, #8]
	str	lr, [sp, #12]
	movt	r4, #:upper16:.LANCHOR1
	bl	printk
	ldr	r0, .L1099+4
	bl	_raw_spin_lock_irqsave
	ldr	r3, [r4, #2528]
	mov	r5, r0
	cmp	r3, #0
	beq	.L1098
	add	r2, r3, #152
	.syntax divided
@ 83 "/home/pascua14/Desktop/s5-kernel/arch/arm/include/asm/atomic.h" 1
	@ atomic_sub
1:	ldrex	r1, [r2]
	sub	r1, r1, #1
	strex	r0, r1, [r2]
	teq	r0, #0
	bne	1b
@ 0 "" 2
	.arm
	.syntax unified
	ldr	r0, .L1099+4
	mov	r1, r5
	bl	_raw_spin_unlock_irqrestore
	mov	r0, #0
.L1094:
	ldrd	r4, [sp]
	ldr	r6, [sp, #8]
	add	sp, sp, #12
	ldr	pc, [sp], #4
.L1098:
	movw	r0, #:lower16:.LC50
	ldr	r1, .L1099
	movt	r0, #:upper16:.LC50
	bl	printk
	ldr	r0, .L1099+4
	mov	r1, r5
	bl	_raw_spin_unlock_irqrestore
	mvn	r0, #18
	b	.L1094
.L1100:
	.align	2
.L1099:
	.word	.LANCHOR2+412
	.word	.LANCHOR1+2524
	.fnend
	.size	rndis_qc_release_dev, .-rndis_qc_release_dev
	.align	2
	.syntax unified
	.arm
	.fpu softvfp
	.type	rndis_qc_open_dev, %function
rndis_qc_open_dev:
	.fnstart
	@ args = 0, pretend = 0, frame = 0
	@ frame_needed = 0, uses_anonymous_args = 0
	movw	r0, #:lower16:.LC51
	strd	r4, [sp, #-16]!
	.save {r4, r5, r6, lr}
	movw	r4, #:lower16:.LANCHOR1
	str	r6, [sp, #8]
	movt	r0, #:upper16:.LC51
	mov	r6, r1
	ldr	r1, .L1107
	str	lr, [sp, #12]
	movt	r4, #:upper16:.LANCHOR1
	bl	printk
	ldr	r0, .L1107+4
	bl	_raw_spin_lock_irqsave
	ldr	r3, [r4, #2528]
	mov	r5, r0
	cmp	r3, #0
	beq	.L1106
	add	r2, r3, #152
	.syntax divided
@ 61 "/home/pascua14/Desktop/s5-kernel/arch/arm/include/asm/atomic.h" 1
	dmb
@ 0 "" 2
@ 63 "/home/pascua14/Desktop/s5-kernel/arch/arm/include/asm/atomic.h" 1
	@ atomic_add_return
1:	ldrex	r1, [r2]
	add	r1, r1, #1
	strex	r0, r1, [r2]
	teq	r0, #0
	bne	1b
@ 0 "" 2
@ 73 "/home/pascua14/Desktop/s5-kernel/arch/arm/include/asm/atomic.h" 1
	dmb
@ 0 "" 2
	.arm
	.syntax unified
	cmp	r1, #1
	bne	.L1104
	ldr	r3, [r4, #2528]
	mov	r1, r5
	ldr	r0, .L1107+4
	str	r3, [r6, #124]
	bl	_raw_spin_unlock_irqrestore
	movw	r0, #:lower16:.LC53
	ldr	r1, .L1107
	movt	r0, #:upper16:.LC53
	bl	printk
	mov	r0, #0
.L1101:
	ldrd	r4, [sp]
	ldr	r6, [sp, #8]
	add	sp, sp, #12
	ldr	pc, [sp], #4
.L1106:
	movw	r0, #:lower16:.LC52
	ldr	r1, .L1107
	movt	r0, #:upper16:.LC52
	bl	printk
	ldr	r0, .L1107+4
	mov	r1, r5
	bl	_raw_spin_unlock_irqrestore
	mvn	r0, #18
	b	.L1101
.L1104:
	.syntax divided
@ 83 "/home/pascua14/Desktop/s5-kernel/arch/arm/include/asm/atomic.h" 1
	@ atomic_sub
1:	ldrex	r1, [r2]
	sub	r1, r1, #1
	strex	r0, r1, [r2]
	teq	r0, #0
	bne	1b
@ 0 "" 2
	.arm
	.syntax unified
	movw	r0, #:lower16:.LC54
	ldr	r1, .L1107
	movt	r0, #:upper16:.LC54
	bl	printk
	ldr	r0, .L1107+4
	mov	r1, r5
	bl	_raw_spin_unlock_irqrestore
	mvn	r0, #15
	b	.L1101
.L1108:
	.align	2
.L1107:
	.word	.LANCHOR2+436
	.word	.LANCHOR1+2524
	.fnend
	.size	rndis_qc_open_dev, .-rndis_qc_open_dev
	.align	2
	.syntax unified
	.arm
	.fpu softvfp
	.type	mtp_release, %function
mtp_release:
	.fnstart
	@ args = 0, pretend = 0, frame = 0
	@ frame_needed = 0, uses_anonymous_args = 0
	movw	r0, #:lower16:.LC55
	.save {r4, lr}
	str	r4, [sp, #-8]!
	movt	r0, #:upper16:.LC55
	str	lr, [sp, #4]
	bl	printk
	movw	r3, #:lower16:.LANCHOR1
	movt	r3, #:upper16:.LANCHOR1
	ldr	r3, [r3, #2532]
	add	r2, r3, #108
	.syntax divided
@ 83 "/home/pascua14/Desktop/s5-kernel/arch/arm/include/asm/atomic.h" 1
	@ atomic_sub
1:	ldrex	r1, [r2]
	sub	r1, r1, #1
	strex	r0, r1, [r2]
	teq	r0, #0
	bne	1b
@ 0 "" 2
	.arm
	.syntax unified
	ldr	r4, [sp]
	add	sp, sp, #4
	mov	r0, #0
	ldr	pc, [sp], #4
	.fnend
	.size	mtp_release, .-mtp_release
	.align	2
	.syntax unified
	.arm
	.fpu softvfp
	.type	mtp_open, %function
mtp_open:
	.fnstart
	@ args = 0, pretend = 0, frame = 0
	@ frame_needed = 0, uses_anonymous_args = 0
	movw	r0, #:lower16:.LC56
	.save {r4, lr}
	str	r4, [sp, #-8]!
	mov	r4, r1
	movt	r0, #:upper16:.LC56
	str	lr, [sp, #4]
	bl	printk
	movw	r2, #:lower16:.LANCHOR1
	movt	r2, #:upper16:.LANCHOR1
	ldr	r3, [r2, #2532]
	add	r0, r3, #108
	.syntax divided
@ 61 "/home/pascua14/Desktop/s5-kernel/arch/arm/include/asm/atomic.h" 1
	dmb
@ 0 "" 2
@ 63 "/home/pascua14/Desktop/s5-kernel/arch/arm/include/asm/atomic.h" 1
	@ atomic_add_return
1:	ldrex	ip, [r0]
	add	ip, ip, #1
	strex	r1, ip, [r0]
	teq	r1, #0
	bne	1b
@ 0 "" 2
@ 73 "/home/pascua14/Desktop/s5-kernel/arch/arm/include/asm/atomic.h" 1
	dmb
@ 0 "" 2
	.arm
	.syntax unified
	cmp	ip, #1
	bne	.L1112
	ldr	r3, [r2, #2532]
	mov	r0, #0
	ldr	r2, [r3, #104]
	cmp	r2, #0
	strne	ip, [r3, #104]
	str	r3, [r4, #124]
.L1111:
	ldr	r4, [sp]
	add	sp, sp, #4
	ldr	pc, [sp], #4
.L1112:
	.syntax divided
@ 83 "/home/pascua14/Desktop/s5-kernel/arch/arm/include/asm/atomic.h" 1
	@ atomic_sub
1:	ldrex	r2, [r0]
	sub	r2, r2, #1
	strex	r1, r2, [r0]
	teq	r1, #0
	bne	1b
@ 0 "" 2
	.arm
	.syntax unified
	mvn	r0, #15
	b	.L1111
	.fnend
	.size	mtp_open, .-mtp_open
	.align	2
	.syntax unified
	.arm
	.fpu softvfp
	.type	ccid_notify_complete, %function
ccid_notify_complete:
	.fnstart
	@ args = 0, pretend = 0, frame = 0
	@ frame_needed = 0, uses_anonymous_args = 0
	@ link register save eliminated.
	ldr	r1, [r1, #44]
	cmn	r1, #104
	beq	.L1117
	cmp	r1, #0
	beq	.L1117
	cmn	r1, #108
	beq	.L1117
	movw	r0, #:lower16:.LC57
	movt	r0, #:upper16:.LC57
	b	printk
.L1117:
	bx	lr
	.fnend
	.size	ccid_notify_complete, .-ccid_notify_complete
	.align	2
	.syntax unified
	.arm
	.fpu softvfp
	.type	frmnet_setup, %function
frmnet_setup:
	.fnstart
	@ args = 0, pretend = 0, frame = 0
	@ frame_needed = 0, uses_anonymous_args = 0
	strd	r4, [sp, #-36]!
	.save {r4, r5, r6, r7, r8, r9, r10, fp, lr}
	strd	r6, [sp, #8]
	strd	r8, [sp, #16]
	strd	r10, [sp, #24]
	str	lr, [sp, #32]
	ldr	r3, [r0, #120]
	.pad #12
	sub	sp, sp, #12
	ldr	r7, [r0, #128]
	ldrh	r9, [r1, #2]	@ unaligned
	ldrh	r6, [r1, #6]	@ unaligned
	cmp	r3, #0
	ldr	r5, [r7, #4]
	beq	.L1136
	ldrh	ip, [r1]	@ unaligned
	movw	r3, #8482
	mov	r4, r0
	mov	r8, r1
	rev16	ip, ip
	uxth	ip, ip
	cmp	ip, r3
	beq	.L1131
	movw	r3, #41217
	cmp	ip, r3
	beq	.L1132
	cmp	ip, #8448
	beq	.L1142
.L1138:
	mvn	r4, #94
.L1129:
	mov	r0, r4
	add	sp, sp, #12
	@ sp needed
	ldrd	r4, [sp]
	ldrd	r6, [sp, #8]
	ldrd	r8, [sp, #16]
	ldrd	r10, [sp, #24]
	add	sp, sp, #32
	ldr	pc, [sp], #4
.L1132:
	cmp	r9, #0
	bne	.L1138
	add	r10, r0, #132
	ldrh	fp, [r1, #4]	@ unaligned
	mov	r0, r10
	bl	_raw_spin_lock
	mov	ip, r4
	ldr	r4, [ip, #144]!
	cmp	r4, ip
	beq	.L1143
	ldrd	r2, [r4]
	mov	ip, #256
	mov	r1, #512
	mov	r0, r10
	mov	r8, r4
	str	r3, [r2, #4]
	str	r2, [r3]
	str	ip, [r4]
	str	r1, [r4, #4]
	bl	_raw_spin_unlock
	ldmdb	r4, {r1, r3}
	ldr	r0, [r5]
	cmp	r6, r3
	movcc	r4, r6
	movcs	r4, r3
	cmp	r4, r6
	mov	r2, r4
	movge	r6, #0
	movlt	r6, #1
	bl	memcpy
	ldr	r0, [r8, #-8]!
	bl	kfree
	mov	r0, r8
	bl	kfree
.L1134:
	ldrb	r3, [r5, #26]	@ zero_extendqisi2
	str	r4, [r5, #4]
	mov	r1, r5
	mov	r2, #32
	bfi	r3, r6, #1, #1
	strb	r3, [r5, #26]
	ldr	r3, [r7]
	ldr	r0, [r3, #4]
	ldr	r3, [r0, #8]
	ldr	r3, [r3, #16]
	blx	r3
	subs	r4, r0, #0
	bge	.L1129
	ldr	r0, [r7]
	movw	r1, #:lower16:.LC59
	mov	r2, r4
	movt	r1, #:upper16:.LC59
	add	r0, r0, #32
	bl	dev_err
	b	.L1129
.L1142:
	movw	r3, #:lower16:frmnet_cmd_complete
	mov	r4, r6
	str	r0, [r5, #32]
	movt	r3, #:upper16:frmnet_cmd_complete
	mov	r6, #0
	str	r3, [r5, #28]
	b	.L1134
.L1131:
	ldr	r8, [r0, #100]
	adds	r6, r6, #0
	movne	r6, #1
	cmp	r8, #0
	beq	.L1139
	ldrb	r1, [r0, #116]	@ zero_extendqisi2
	movw	r3, #:lower16:.LANCHOR1
	mov	r2, r9
	movt	r3, #:upper16:.LANCHOR1
	mov	r4, #0
	add	r1, r1, r1, lsl #1
	add	r3, r3, r1, lsl #3
	ldrb	r1, [r3, #2548]	@ zero_extendqisi2
	blx	r8
	b	.L1134
.L1136:
	mvn	r4, #106
	b	.L1129
.L1139:
	mov	r4, r8
	b	.L1134
.L1143:
	movw	r0, #:lower16:.LC58
	ldrb	r2, [r8, #1]	@ zero_extendqisi2
	mov	r3, r9
	str	fp, [sp]
	movt	r0, #:upper16:.LC58
	ldrb	r1, [r8]	@ zero_extendqisi2
	str	r6, [sp, #4]
	mvn	r4, #94
	bl	printk
	mov	r0, r10
	bl	_raw_spin_unlock
	b	.L1129
	.fnend
	.size	frmnet_setup, .-frmnet_setup
	.align	2
	.syntax unified
	.arm
	.fpu softvfp
	.type	frmnet_notify_complete, %function
frmnet_notify_complete:
	.fnstart
	@ args = 0, pretend = 0, frame = 0
	@ frame_needed = 0, uses_anonymous_args = 0
	strd	r4, [sp, #-16]!
	.save {r4, r5, r6, lr}
	mov	r5, r1
	str	r6, [sp, #8]
	str	lr, [sp, #12]
	ldr	r1, [r1, #44]
	ldr	r4, [r5, #32]
	cmn	r1, #104
	beq	.L1146
	cmp	r1, #0
	bne	.L1171
.L1147:
	ldr	r3, [r4, #124]
	cmp	r3, #0
	bne	.L1172
.L1144:
	ldrd	r4, [sp]
	ldr	r6, [sp, #8]
	add	sp, sp, #12
	ldr	pc, [sp], #4
.L1171:
	cmn	r1, #108
	bne	.L1167
.L1146:
	add	r5, r4, #132
	mov	r0, r5
	bl	_raw_spin_lock_irqsave
	mov	r1, r0
	mov	r3, #0
	mov	r0, r5
	str	r3, [r4, #152]
.L1169:
	ldrd	r4, [sp]
	ldr	r6, [sp, #8]
	ldr	lr, [sp, #12]
	add	sp, sp, #16
	b	_raw_spin_unlock_irqrestore
.L1172:
	add	r6, r4, #132
	mov	r0, r6
	bl	_raw_spin_lock_irqsave
	ldr	r3, [r4, #152]
	cmp	r3, #0
	beq	.L1150
	sub	r3, r3, #1
	mov	r1, r0
	cmp	r3, #0
	mov	r0, r6
	str	r3, [r4, #152]
	beq	.L1169
	bl	_raw_spin_unlock_irqrestore
	ldr	r0, [r4, #136]
	mov	r1, r5
	mov	r2, #32
	ldr	r3, [r0, #8]
	ldr	r3, [r3, #16]
	blx	r3
	cmp	r0, #0
	beq	.L1144
	mov	r0, r6
	bl	_raw_spin_lock_irqsave
	mov	r2, r4
	mov	r5, r0
	ldr	r3, [r2, #144]!
	cmp	r3, r2
	beq	.L1153
	ldr	r2, [r4, #152]
	cmp	r2, #0
	beq	.L1154
	sub	r2, r2, #1
	mov	ip, #256
	mov	r0, #512
	str	r2, [r4, #152]
	ldm	r3, {r1, r2}
	mov	r4, r3
	str	r2, [r1, #4]
	str	r1, [r2]
	str	ip, [r3]
	str	r0, [r3, #4]
	ldr	r0, [r4, #-8]!
	bl	kfree
	mov	r0, r4
	bl	kfree
.L1153:
	mov	r1, r5
	b	.L1170
.L1150:
	mov	r1, r0
.L1170:
	mov	r0, r6
	b	.L1169
.L1167:
	movw	r0, #:lower16:.LC60
	movt	r0, #:upper16:.LC60
	bl	printk
	b	.L1147
.L1154:
	movw	r0, #:lower16:.LC61
	ldr	r1, .L1173
	movt	r0, #:upper16:.LC61
	bl	printk
	b	.L1153
.L1174:
	.align	2
.L1173:
	.word	.LANCHOR2+456
	.fnend
	.size	frmnet_notify_complete, .-frmnet_notify_complete
	.align	2
	.syntax unified
	.arm
	.fpu softvfp
	.type	mbim_function_ctrlrequest, %function
mbim_function_ctrlrequest:
	.fnstart
	@ args = 0, pretend = 0, frame = 0
	@ frame_needed = 0, uses_anonymous_args = 0
	strd	r4, [sp, #-16]!
	.save {r4, r5, r6, lr}
	str	r6, [sp, #8]
	str	lr, [sp, #12]
	ldr	r3, [r1, #12]
	ldrh	r5, [r2, #6]	@ unaligned
	cmp	r3, #0
	bne	.L1184
	movw	r0, #:lower16:.LANCHOR0
	movt	r0, #:upper16:.LANCHOR0
	ldrb	r3, [r0, #190]	@ zero_extendqisi2
	cmp	r3, #0
	beq	.L1184
	ldrb	r3, [r2]	@ zero_extendqisi2
	mov	r4, r1
	ldrb	r1, [r2, #1]	@ zero_extendqisi2
	cmp	r3, #128
	beq	.L1186
	ldrh	r2, [r2, #4]	@ unaligned
	cmp	r3, #192
	cmpeq	r1, #165
	moveq	r3, #1
	movne	r3, #0
	cmp	r2, #4
	movne	r3, #0
	andeq	r3, r3, #1
	cmp	r3, #0
	beq	.L1184
	ldr	r3, [r4, #4]
	cmp	r5, #40
	add	r1, r0, #164
	movcc	r6, r5
	movcs	r6, #40
	mov	r2, r6
	ldr	r0, [r3]
	bl	memcpy
.L1178:
	ldr	r3, [r4, #4]
	cmp	r5, r6
	mov	r2, #32
	movle	r5, #0
	movgt	r5, #1
	ldrb	r1, [r3, #26]	@ zero_extendqisi2
	bfi	r1, r5, #1, #1
	strb	r1, [r3, #26]
	ldr	r3, [r4, #4]
	str	r6, [r3, #4]
	ldr	r3, [r4]
	ldr	r1, [r4, #4]
	ldr	r0, [r3, #4]
	ldr	r3, [r0, #8]
	ldr	r3, [r3, #16]
	blx	r3
	subs	r2, r0, #0
	blt	.L1187
.L1175:
	mov	r0, r6
	ldrd	r4, [sp]
	ldr	r6, [sp, #8]
	add	sp, sp, #12
	ldr	pc, [sp], #4
.L1186:
	cmp	r1, #6
	beq	.L1188
.L1184:
	mvn	r6, #94
	b	.L1175
.L1188:
	ldrh	r3, [r2, #2]	@ unaligned
	lsr	r2, r3, #8
	cmp	r2, #3
	bne	.L1184
	uxtb	r3, r3
	cmp	r3, #238
	bne	.L1184
	ldr	r3, [r4, #4]
	cmp	r5, #18
	add	r1, r0, #204
	movcc	r6, r5
	movcs	r6, #18
	mov	r2, r6
	ldr	r0, [r3]
	bl	memcpy
	b	.L1178
.L1187:
	movw	r0, #:lower16:.LC62
	ldr	r1, .L1189
	movt	r0, #:upper16:.LC62
	bl	printk
	b	.L1175
.L1190:
	.align	2
.L1189:
	.word	.LANCHOR2+480
	.fnend
	.size	mbim_function_ctrlrequest, .-mbim_function_ctrlrequest
	.align	2
	.syntax unified
	.arm
	.fpu softvfp
	.type	mbim_release, %function
mbim_release:
	.fnstart
	@ args = 0, pretend = 0, frame = 0
	@ frame_needed = 0, uses_anonymous_args = 0
	movw	r0, #:lower16:.LC63
	.save {r4, lr}
	str	r4, [sp, #-8]!
	ldr	r1, .L1193
	movt	r0, #:upper16:.LC63
	str	lr, [sp, #4]
	bl	printk
	movw	r3, #:lower16:.LANCHOR1
	movt	r3, #:upper16:.LANCHOR1
	ldr	r3, [r3, #2608]
	add	r2, r3, #92
	.syntax divided
@ 83 "/home/pascua14/Desktop/s5-kernel/arch/arm/include/asm/atomic.h" 1
	@ atomic_sub
1:	ldrex	r1, [r2]
	sub	r1, r1, #1
	strex	r0, r1, [r2]
	teq	r0, #0
	bne	1b
@ 0 "" 2
	.arm
	.syntax unified
	ldr	r4, [sp]
	add	sp, sp, #4
	mov	r0, #0
	ldr	pc, [sp], #4
.L1194:
	.align	2
.L1193:
	.word	.LANCHOR2+500
	.fnend
	.size	mbim_release, .-mbim_release
	.align	2
	.syntax unified
	.arm
	.fpu softvfp
	.type	mbim_open, %function
mbim_open:
	.fnstart
	@ args = 0, pretend = 0, frame = 0
	@ frame_needed = 0, uses_anonymous_args = 0
	strd	r4, [sp, #-16]!
	.save {r4, r5, r6, lr}
	movw	r0, #:lower16:.LC64
	movw	r4, #:lower16:.LANCHOR1
	mov	r5, r1
	movt	r0, #:upper16:.LC64
	ldr	r1, .L1204
	movt	r4, #:upper16:.LANCHOR1
	str	r6, [sp, #8]
	str	lr, [sp, #12]
	bl	printk
	ldr	r3, [r4, #2608]
	cmp	r3, #0
	beq	.L1202
	add	r2, r3, #92
	.syntax divided
@ 61 "/home/pascua14/Desktop/s5-kernel/arch/arm/include/asm/atomic.h" 1
	dmb
@ 0 "" 2
@ 63 "/home/pascua14/Desktop/s5-kernel/arch/arm/include/asm/atomic.h" 1
	@ atomic_add_return
1:	ldrex	r1, [r2]
	add	r1, r1, #1
	strex	r0, r1, [r2]
	teq	r0, #0
	bne	1b
@ 0 "" 2
@ 73 "/home/pascua14/Desktop/s5-kernel/arch/arm/include/asm/atomic.h" 1
	dmb
@ 0 "" 2
	.arm
	.syntax unified
	cmp	r1, #1
	bne	.L1198
	movw	r0, #:lower16:.LC66
	ldr	r1, .L1204
	movt	r0, #:upper16:.LC66
	bl	printk
	ldr	r3, [r4, #2608]
	ldr	r2, [r3, #88]
	cmp	r2, #0
	beq	.L1203
.L1200:
	mov	r4, #0
	movw	r0, #:lower16:.LC68
	str	r3, [r5, #124]
	movt	r0, #:upper16:.LC68
	ldr	r1, .L1204
	str	r4, [r3, #232]
	bl	printk
	mov	r0, r4
.L1195:
	ldrd	r4, [sp]
	ldr	r6, [sp, #8]
	add	sp, sp, #12
	ldr	pc, [sp], #4
.L1198:
	.syntax divided
@ 83 "/home/pascua14/Desktop/s5-kernel/arch/arm/include/asm/atomic.h" 1
	@ atomic_sub
1:	ldrex	r1, [r2]
	sub	r1, r1, #1
	strex	r0, r1, [r2]
	teq	r0, #0
	bne	1b
@ 0 "" 2
	.arm
	.syntax unified
	movw	r0, #:lower16:.LC54
	ldr	r1, .L1204
	movt	r0, #:upper16:.LC54
	bl	printk
	mvn	r0, #15
	b	.L1195
.L1202:
	movw	r0, #:lower16:.LC65
	ldr	r1, .L1204
	movt	r0, #:upper16:.LC65
	bl	printk
	mvn	r0, #18
	b	.L1195
.L1203:
	movw	r0, #:lower16:.LC67
	ldr	r1, .L1204
	movt	r0, #:upper16:.LC67
	bl	printk
	ldr	r3, [r4, #2608]
	b	.L1200
.L1205:
	.align	2
.L1204:
	.word	.LANCHOR2+516
	.fnend
	.size	mbim_open, .-mbim_open
	.align	2
	.global	gsdio_tx_pull
	.syntax unified
	.arm
	.fpu softvfp
	.type	gsdio_tx_pull, %function
gsdio_tx_pull:
	.fnstart
	@ args = 0, pretend = 0, frame = 0
	@ frame_needed = 0, uses_anonymous_args = 0
	strd	r4, [sp, #-32]!
	.save {r4, r5, r6, r7, r8, r9, r10, lr}
	mov	r4, r0
	strd	r6, [sp, #8]
	strd	r8, [sp, #16]
	sub	r8, r0, #60
	str	r10, [sp, #24]
	str	lr, [sp, #28]
	ldr	r3, [r0, #36]
	.pad #8
	sub	sp, sp, #8
	cmp	r3, #0
	beq	.L1217
	sub	r5, r0, #56
	sub	r7, r0, #8
	mov	r0, r5
	bl	_raw_spin_lock_irq
	ldr	r6, [r4, #-8]
	cmp	r7, r6
	beq	.L1211
	ldr	r3, [r4, #48]
	cmp	r3, #0
	bne	.L1218
.L1211:
	mov	r0, r5
	add	sp, sp, #8
	@ sp needed
	ldrd	r4, [sp]
	ldrd	r6, [sp, #8]
	ldrd	r8, [sp, #16]
	ldr	r10, [sp, #24]
	ldr	lr, [sp, #28]
	add	sp, sp, #32
	b	_raw_spin_unlock_irq
.L1217:
	movw	r0, #:lower16:.LC69
	ldr	r1, .L1221
	movt	r0, #:upper16:.LC69
	bl	printk
	cmp	r8, #0
	beq	.L1219
	ldr	r3, [r4, #60]
	ldr	r3, [r3, #4]
	cmp	r3, #0
	beq	.L1206
.L1210:
	b	.L1210
.L1206:
	add	sp, sp, #8
	@ sp needed
	ldrd	r4, [sp]
	ldrd	r6, [sp, #8]
	ldrd	r8, [sp, #16]
	ldr	r10, [sp, #24]
	add	sp, sp, #28
	ldr	pc, [sp], #4
.L1218:
	ldrd	r2, [r6]
	mov	ip, #256
	mov	r1, #512
	ldr	lr, [r4, #36]
	mov	r0, r5
	sub	r10, r6, #36
	ldr	r9, [lr, #88]
	str	r3, [r2, #4]
	str	r2, [r3]
	str	ip, [r6]
	str	r1, [r6, #4]
	ldr	r3, [r4, #16]
	sub	r3, r3, #1
	str	r3, [r4, #16]
	bl	_raw_spin_unlock_irq
	mov	r0, r5
	bl	_raw_spin_lock_irq
	mvn	r1, #18
	movw	r0, #:lower16:.LC70
	ldr	r3, [r4, #-60]
	mov	r2, r8
	movt	r0, #:upper16:.LC70
	str	r1, [sp]
	ldr	r1, .L1221
	bl	printk
	ldr	r3, [r4, #36]
	cmp	r3, #0
	beq	.L1220
	ldr	r3, [r4, #-8]
	str	r6, [r3, #4]
	stm	r6, {r3, r7}
	ldr	r3, [r4, #16]
	str	r6, [r4, #-8]
	add	r3, r3, #1
	str	r3, [r4, #16]
	b	.L1211
.L1219:
	ldr	r1, .L1221+4
	movw	r0, #:lower16:.LC12
	movt	r0, #:upper16:.LC12
	add	sp, sp, #8
	@ sp needed
	ldrd	r4, [sp]
	ldrd	r6, [sp, #8]
	ldrd	r8, [sp, #16]
	ldr	r10, [sp, #24]
	ldr	lr, [sp, #28]
	add	sp, sp, #32
	b	printk
.L1220:
	ldr	r0, [r6, #-36]
	bl	kfree
	ldr	r3, [r9, #8]
	mov	r1, r10
	mov	r0, r9
	ldr	r3, [r3, #12]
	blx	r3
	b	.L1211
.L1222:
	.align	2
.L1221:
	.word	.LANCHOR2+528
	.word	.LANCHOR2+544
	.fnend
	.size	gsdio_tx_pull, .-gsdio_tx_pull
	.align	2
	.syntax unified
	.arm
	.fpu softvfp
	.type	gsdio_open_work, %function
gsdio_open_work:
	.fnstart
	@ args = 0, pretend = 0, frame = 0
	@ frame_needed = 0, uses_anonymous_args = 0
	mov	r2, r0
	.save {lr}
	str	lr, [sp, #-4]!
	ldr	r1, .L1225
	ldr	ip, [r2, #-4]
	.pad #12
	sub	sp, sp, #12
	movw	r0, #:lower16:.LC71
	ldr	r3, [r2, #-124]!
	movt	r0, #:upper16:.LC71
	ldr	ip, [ip]
	str	ip, [sp]
	bl	printk
	add	sp, sp, #12
	@ sp needed
	ldr	pc, [sp], #4
.L1226:
	.align	2
.L1225:
	.word	.LANCHOR2+564
	.fnend
	.size	gsdio_open_work, .-gsdio_open_work
	.align	2
	.syntax unified
	.arm
	.fpu softvfp
	.type	remote_wakeup_show, %function
remote_wakeup_show:
	.fnstart
	@ args = 0, pretend = 0, frame = 0
	@ frame_needed = 0, uses_anonymous_args = 0
	.save {r4, lr}
	str	r4, [sp, #-8]!
	mov	r4, r2
	str	lr, [sp, #4]
	bl	dev_get_drvdata
	ldr	r3, [r0, #420]
	cmp	r3, #0
	moveq	r0, r3
	beq	.L1227
	ldr	r3, [r0, #412]
	movw	r2, #:lower16:.LC72
	mov	r1, #4096
	movt	r2, #:upper16:.LC72
	mov	r0, r4
	ldrb	r3, [r3, #-98]	@ zero_extendqisi2
	ubfx	r3, r3, #5, #1
	bl	snprintf
	mov	r0, #2
.L1227:
	ldr	r4, [sp]
	add	sp, sp, #4
	ldr	pc, [sp], #4
	.fnend
	.size	remote_wakeup_show, .-remote_wakeup_show
	.align	2
	.syntax unified
	.arm
	.fpu softvfp
	.type	state_show, %function
state_show:
	.fnstart
	@ args = 0, pretend = 0, frame = 0
	@ frame_needed = 0, uses_anonymous_args = 0
	strd	r4, [sp, #-24]!
	.save {r4, r5, r6, r7, r8, lr}
	strd	r6, [sp, #8]
	mov	r6, r2
	str	r8, [sp, #16]
	str	lr, [sp, #20]
	bl	dev_get_drvdata
	ldr	r4, [r0, #8]
	cmp	r4, #0
	movweq	r4, #:lower16:.LC74
	movteq	r4, #:upper16:.LC74
	beq	.L1232
	add	r7, r4, #60
	mov	r5, r0
	mov	r0, r7
	bl	_raw_spin_lock_irqsave
	ldr	r3, [r4, #12]
	mov	r1, r0
	cmp	r3, #0
	movwne	r4, #:lower16:.LC73
	movtne	r4, #:upper16:.LC73
	beq	.L1238
.L1233:
	mov	r0, r7
	bl	_raw_spin_unlock_irqrestore
.L1232:
	movw	r0, #:lower16:.LC76
	mov	r2, r4
	ldr	r1, .L1239
	movt	r0, #:upper16:.LC76
	bl	printk
	movw	r2, #:lower16:.LC77
	mov	r3, r4
	ldrd	r4, [sp]
	mov	r0, r6
	movt	r2, #:upper16:.LC77
	ldrd	r6, [sp, #8]
	ldr	r8, [sp, #16]
	mov	r1, #4096
	ldr	lr, [sp, #20]
	add	sp, sp, #24
	b	snprintf
.L1238:
	ldrb	r2, [r5, #52]	@ zero_extendqisi2
	movw	r3, #:lower16:.LC75
	movw	r4, #:lower16:.LC74
	movt	r3, #:upper16:.LC75
	movt	r4, #:upper16:.LC74
	cmp	r2, #0
	movne	r4, r3
	b	.L1233
.L1240:
	.align	2
.L1239:
	.word	.LANCHOR2+580
	.fnend
	.size	state_show, .-state_show
	.align	2
	.syntax unified
	.arm
	.fpu softvfp
	.type	pm_qos_show, %function
pm_qos_show:
	.fnstart
	@ args = 0, pretend = 0, frame = 0
	@ frame_needed = 0, uses_anonymous_args = 0
	.save {r4, lr}
	str	r4, [sp, #-8]!
	mov	r4, r2
	str	lr, [sp, #4]
	bl	dev_get_drvdata
	movw	r2, #:lower16:.LC77
	add	r3, r0, #56
	ldr	lr, [sp, #4]
	mov	r0, r4
	movt	r2, #:upper16:.LC77
	ldr	r4, [sp]
	mov	r1, #4096
	add	sp, sp, #8
	b	snprintf
	.fnend
	.size	pm_qos_show, .-pm_qos_show
	.align	2
	.syntax unified
	.arm
	.fpu softvfp
	.type	enable_show, %function
enable_show:
	.fnstart
	@ args = 0, pretend = 0, frame = 0
	@ frame_needed = 0, uses_anonymous_args = 0
	strd	r4, [sp, #-16]!
	.save {r4, r5, r6, lr}
	mov	r5, r2
	str	r6, [sp, #8]
	str	lr, [sp, #12]
	bl	dev_get_drvdata
	mov	r4, r0
	movw	r0, #:lower16:.LC78
	ldr	r1, .L1245
	ldrb	r2, [r4, #16]	@ zero_extendqisi2
	movt	r0, #:upper16:.LC78
	bl	printk
	movw	r2, #:lower16:.LC72
	ldrb	r3, [r4, #16]	@ zero_extendqisi2
	mov	r0, r5
	movt	r2, #:upper16:.LC72
	mov	r1, #4096
	bl	snprintf
	ldrd	r4, [sp]
	mov	r0, #2
	ldr	r6, [sp, #8]
	add	sp, sp, #12
	ldr	pc, [sp], #4
.L1246:
	.align	2
.L1245:
	.word	.LANCHOR2+592
	.fnend
	.size	enable_show, .-enable_show
	.align	2
	.syntax unified
	.arm
	.fpu softvfp
	.type	iSerial_show, %function
iSerial_show:
	.fnstart
	@ args = 0, pretend = 0, frame = 0
	@ frame_needed = 0, uses_anonymous_args = 0
	@ link register save eliminated.
	mov	r0, r2
	movw	r2, #:lower16:.LC79
	ldr	r3, .L1248
	movt	r2, #:upper16:.LC79
	mov	r1, #4096
	b	snprintf
.L1249:
	.align	2
.L1248:
	.word	.LANCHOR1+2256
	.fnend
	.size	iSerial_show, .-iSerial_show
	.align	2
	.syntax unified
	.arm
	.fpu softvfp
	.type	iProduct_show, %function
iProduct_show:
	.fnstart
	@ args = 0, pretend = 0, frame = 0
	@ frame_needed = 0, uses_anonymous_args = 0
	@ link register save eliminated.
	mov	r0, r2
	movw	r2, #:lower16:.LC79
	ldr	r3, .L1251
	movt	r2, #:upper16:.LC79
	mov	r1, #4096
	b	snprintf
.L1252:
	.align	2
.L1251:
	.word	.LANCHOR1+2612
	.fnend
	.size	iProduct_show, .-iProduct_show
	.align	2
	.syntax unified
	.arm
	.fpu softvfp
	.type	iManufacturer_show, %function
iManufacturer_show:
	.fnstart
	@ args = 0, pretend = 0, frame = 0
	@ frame_needed = 0, uses_anonymous_args = 0
	@ link register save eliminated.
	mov	r0, r2
	movw	r2, #:lower16:.LC79
	ldr	r3, .L1254
	movt	r2, #:upper16:.LC79
	mov	r1, #4096
	b	snprintf
.L1255:
	.align	2
.L1254:
	.word	.LANCHOR1+2868
	.fnend
	.size	iManufacturer_show, .-iManufacturer_show
	.align	2
	.syntax unified
	.arm
	.fpu softvfp
	.type	bDeviceProtocol_show, %function
bDeviceProtocol_show:
	.fnstart
	@ args = 0, pretend = 0, frame = 0
	@ frame_needed = 0, uses_anonymous_args = 0
	@ link register save eliminated.
	movw	r3, #:lower16:.LANCHOR0
	mov	r0, r2
	movt	r3, #:upper16:.LANCHOR0
	movw	r2, #:lower16:.LC72
	ldrb	r3, [r3, #230]	@ zero_extendqisi2
	movt	r2, #:upper16:.LC72
	mov	r1, #4096
	b	snprintf
	.fnend
	.size	bDeviceProtocol_show, .-bDeviceProtocol_show
	.align	2
	.syntax unified
	.arm
	.fpu softvfp
	.type	bDeviceSubClass_show, %function
bDeviceSubClass_show:
	.fnstart
	@ args = 0, pretend = 0, frame = 0
	@ frame_needed = 0, uses_anonymous_args = 0
	@ link register save eliminated.
	movw	r3, #:lower16:.LANCHOR0
	mov	r0, r2
	movt	r3, #:upper16:.LANCHOR0
	movw	r2, #:lower16:.LC72
	ldrb	r3, [r3, #229]	@ zero_extendqisi2
	movt	r2, #:upper16:.LC72
	mov	r1, #4096
	b	snprintf
	.fnend
	.size	bDeviceSubClass_show, .-bDeviceSubClass_show
	.align	2
	.syntax unified
	.arm
	.fpu softvfp
	.type	bDeviceClass_show, %function
bDeviceClass_show:
	.fnstart
	@ args = 0, pretend = 0, frame = 0
	@ frame_needed = 0, uses_anonymous_args = 0
	@ link register save eliminated.
	movw	r3, #:lower16:.LANCHOR0
	mov	r0, r2
	movt	r3, #:upper16:.LANCHOR0
	movw	r2, #:lower16:.LC72
	ldrb	r3, [r3, #228]	@ zero_extendqisi2
	movt	r2, #:upper16:.LC72
	mov	r1, #4096
	b	snprintf
	.fnend
	.size	bDeviceClass_show, .-bDeviceClass_show
	.align	2
	.syntax unified
	.arm
	.fpu softvfp
	.type	bcdDevice_show, %function
bcdDevice_show:
	.fnstart
	@ args = 0, pretend = 0, frame = 0
	@ frame_needed = 0, uses_anonymous_args = 0
	movw	r3, #:lower16:.LANCHOR0
	mov	r0, r2
	.save {r4, lr}
	str	r4, [sp, #-8]!
	movt	r3, #:upper16:.LANCHOR0
	movw	r2, #:lower16:.LC80
	str	lr, [sp, #4]
	movt	r2, #:upper16:.LC80
	mov	r1, #4096
	ldrh	r3, [r3, #236]
	bl	snprintf
	ldr	r4, [sp]
	add	sp, sp, #4
	mov	r0, #5
	ldr	pc, [sp], #4
	.fnend
	.size	bcdDevice_show, .-bcdDevice_show
	.align	2
	.syntax unified
	.arm
	.fpu softvfp
	.type	idProduct_show, %function
idProduct_show:
	.fnstart
	@ args = 0, pretend = 0, frame = 0
	@ frame_needed = 0, uses_anonymous_args = 0
	movw	r3, #:lower16:.LANCHOR0
	mov	r0, r2
	.save {r4, lr}
	str	r4, [sp, #-8]!
	movt	r3, #:upper16:.LANCHOR0
	movw	r2, #:lower16:.LC80
	str	lr, [sp, #4]
	movt	r2, #:upper16:.LC80
	mov	r1, #4096
	ldrh	r3, [r3, #234]
	bl	snprintf
	ldr	r4, [sp]
	add	sp, sp, #4
	mov	r0, #5
	ldr	pc, [sp], #4
	.fnend
	.size	idProduct_show, .-idProduct_show
	.align	2
	.syntax unified
	.arm
	.fpu softvfp
	.type	idVendor_show, %function
idVendor_show:
	.fnstart
	@ args = 0, pretend = 0, frame = 0
	@ frame_needed = 0, uses_anonymous_args = 0
	movw	r3, #:lower16:.LANCHOR0
	mov	r0, r2
	.save {r4, lr}
	str	r4, [sp, #-8]!
	movt	r3, #:upper16:.LANCHOR0
	movw	r2, #:lower16:.LC80
	str	lr, [sp, #4]
	movt	r2, #:upper16:.LC80
	mov	r1, #4096
	ldrh	r3, [r3, #232]
	bl	snprintf
	ldr	r4, [sp]
	add	sp, sp, #4
	mov	r0, #5
	ldr	pc, [sp], #4
	.fnend
	.size	idVendor_show, .-idVendor_show
	.align	2
	.syntax unified
	.arm
	.fpu softvfp
	.type	audio_source_pcm_show, %function
audio_source_pcm_show:
	.fnstart
	@ args = 0, pretend = 0, frame = 0
	@ frame_needed = 0, uses_anonymous_args = 0
	.save {r4, lr}
	str	r4, [sp, #-8]!
	mov	r4, r2
	str	lr, [sp, #4]
	.pad #8
	sub	sp, sp, #8
	bl	dev_get_drvdata
	ldr	ip, [r0, #4]
	movw	r2, #:lower16:.LC81
	mov	r1, #4096
	movt	r2, #:upper16:.LC81
	mov	r0, r4
	ldm	ip, {r3, ip}
	str	ip, [sp]
	bl	snprintf
	add	sp, sp, #8
	@ sp needed
	ldr	r4, [sp]
	add	sp, sp, #4
	ldr	pc, [sp], #4
	.fnend
	.size	audio_source_pcm_show, .-audio_source_pcm_show
	.align	2
	.syntax unified
	.arm
	.fpu softvfp
	.type	mass_storage_inquiry_show, %function
mass_storage_inquiry_show:
	.fnstart
	@ args = 0, pretend = 0, frame = 0
	@ frame_needed = 0, uses_anonymous_args = 0
	.save {r4, lr}
	str	r4, [sp, #-8]!
	mov	r4, r2
	str	lr, [sp, #4]
	bl	dev_get_drvdata
	ldr	r3, [r0, #4]
	movw	r2, #:lower16:.LC77
	mov	r0, r4
	movt	r2, #:upper16:.LC77
	ldr	r4, [sp]
	mov	r1, #4096
	ldr	lr, [sp, #4]
	add	sp, sp, #8
	ldr	r3, [r3, #96]
	add	r3, r3, #180
	b	snprintf
	.fnend
	.size	mass_storage_inquiry_show, .-mass_storage_inquiry_show
	.align	2
	.syntax unified
	.arm
	.fpu softvfp
	.type	ecm_ethaddr_show, %function
ecm_ethaddr_show:
	.fnstart
	@ args = 0, pretend = 0, frame = 0
	@ frame_needed = 0, uses_anonymous_args = 0
	.save {r4, lr}
	str	r4, [sp, #-8]!
	mov	r4, r2
	str	lr, [sp, #4]
	.pad #24
	sub	sp, sp, #24
	bl	dev_get_drvdata
	ldr	ip, [r0, #4]
	movw	r2, #:lower16:.LC82
	mov	r1, #4096
	movt	r2, #:upper16:.LC82
	mov	r0, r4
	ldrb	lr, [ip, #5]	@ zero_extendqisi2
	ldrb	r3, [ip]	@ zero_extendqisi2
	str	lr, [sp, #16]
	ldrb	lr, [ip, #4]	@ zero_extendqisi2
	str	lr, [sp, #12]
	ldrb	lr, [ip, #3]	@ zero_extendqisi2
	str	lr, [sp, #8]
	ldrb	lr, [ip, #2]	@ zero_extendqisi2
	str	lr, [sp, #4]
	ldrb	ip, [ip, #1]	@ zero_extendqisi2
	str	ip, [sp]
	bl	snprintf
	mov	r0, #18
	add	sp, sp, #24
	@ sp needed
	ldr	r4, [sp]
	add	sp, sp, #4
	ldr	pc, [sp], #4
	.fnend
	.size	ecm_ethaddr_show, .-ecm_ethaddr_show
	.align	2
	.syntax unified
	.arm
	.fpu softvfp
	.type	ecm_transports_show, %function
ecm_transports_show:
	.fnstart
	@ args = 0, pretend = 0, frame = 0
	@ frame_needed = 0, uses_anonymous_args = 0
	@ link register save eliminated.
	mov	r0, r2
	movw	r2, #:lower16:.LC77
	ldr	r3, .L1272
	movt	r2, #:upper16:.LC77
	mov	r1, #4096
	b	snprintf
.L1273:
	.align	2
.L1272:
	.word	.LANCHOR1+3124
	.fnend
	.size	ecm_transports_show, .-ecm_transports_show
	.align	2
	.syntax unified
	.arm
	.fpu softvfp
	.type	rndis_max_pkt_per_xfer_show, %function
rndis_max_pkt_per_xfer_show:
	.fnstart
	@ args = 0, pretend = 0, frame = 0
	@ frame_needed = 0, uses_anonymous_args = 0
	.save {r4, lr}
	str	r4, [sp, #-8]!
	mov	r4, r2
	str	lr, [sp, #4]
	bl	dev_get_drvdata
	ldr	r3, [r0, #4]
	movw	r2, #:lower16:.LC72
	mov	r0, r4
	movt	r2, #:upper16:.LC72
	ldr	r4, [sp]
	mov	r1, #4096
	ldr	lr, [sp, #4]
	add	sp, sp, #8
	ldrb	r3, [r3, #12]	@ zero_extendqisi2
	b	snprintf
	.fnend
	.size	rndis_max_pkt_per_xfer_show, .-rndis_max_pkt_per_xfer_show
	.align	2
	.syntax unified
	.arm
	.fpu softvfp
	.type	rndis_vendorID_show, %function
rndis_vendorID_show:
	.fnstart
	@ args = 0, pretend = 0, frame = 0
	@ frame_needed = 0, uses_anonymous_args = 0
	.save {r4, lr}
	str	r4, [sp, #-8]!
	mov	r4, r2
	str	lr, [sp, #4]
	bl	dev_get_drvdata
	ldr	r3, [r0, #4]
	movw	r2, #:lower16:.LC80
	mov	r0, r4
	movt	r2, #:upper16:.LC80
	ldr	r4, [sp]
	mov	r1, #4096
	ldr	lr, [sp, #4]
	add	sp, sp, #8
	ldr	r3, [r3, #8]
	b	snprintf
	.fnend
	.size	rndis_vendorID_show, .-rndis_vendorID_show
	.align	2
	.syntax unified
	.arm
	.fpu softvfp
	.type	rndis_ethaddr_show, %function
rndis_ethaddr_show:
	.fnstart
	@ args = 0, pretend = 0, frame = 0
	@ frame_needed = 0, uses_anonymous_args = 0
	.save {r4, lr}
	str	r4, [sp, #-8]!
	mov	r4, r2
	str	lr, [sp, #4]
	.pad #24
	sub	sp, sp, #24
	bl	dev_get_drvdata
	ldr	ip, [r0, #4]
	movw	r2, #:lower16:.LC82
	mov	r1, #4096
	movt	r2, #:upper16:.LC82
	mov	r0, r4
	ldrb	lr, [ip, #5]	@ zero_extendqisi2
	ldrb	r3, [ip]	@ zero_extendqisi2
	str	lr, [sp, #16]
	ldrb	lr, [ip, #4]	@ zero_extendqisi2
	str	lr, [sp, #12]
	ldrb	lr, [ip, #3]	@ zero_extendqisi2
	str	lr, [sp, #8]
	ldrb	lr, [ip, #2]	@ zero_extendqisi2
	str	lr, [sp, #4]
	ldrb	ip, [ip, #1]	@ zero_extendqisi2
	str	ip, [sp]
	bl	snprintf
	mov	r0, #18
	add	sp, sp, #24
	@ sp needed
	ldr	r4, [sp]
	add	sp, sp, #4
	ldr	pc, [sp], #4
	.fnend
	.size	rndis_ethaddr_show, .-rndis_ethaddr_show
	.align	2
	.syntax unified
	.arm
	.fpu softvfp
	.type	rndis_wceis_show, %function
rndis_wceis_show:
	.fnstart
	@ args = 0, pretend = 0, frame = 0
	@ frame_needed = 0, uses_anonymous_args = 0
	.save {r4, lr}
	str	r4, [sp, #-8]!
	mov	r4, r2
	str	lr, [sp, #4]
	bl	dev_get_drvdata
	ldr	r3, [r0, #4]
	movw	r2, #:lower16:.LC72
	mov	r0, r4
	movt	r2, #:upper16:.LC72
	mov	r1, #4096
	ldrb	r3, [r3, #269]	@ zero_extendqisi2
	bl	snprintf
	ldr	r4, [sp]
	add	sp, sp, #4
	mov	r0, #2
	ldr	pc, [sp], #4
	.fnend
	.size	rndis_wceis_show, .-rndis_wceis_show
	.align	2
	.syntax unified
	.arm
	.fpu softvfp
	.type	rndis_manufacturer_show, %function
rndis_manufacturer_show:
	.fnstart
	@ args = 0, pretend = 0, frame = 0
	@ frame_needed = 0, uses_anonymous_args = 0
	.save {r4, lr}
	str	r4, [sp, #-8]!
	mov	r4, r2
	str	lr, [sp, #4]
	bl	dev_get_drvdata
	ldr	r3, [r0, #4]
	movw	r2, #:lower16:.LC77
	mov	r0, r4
	movt	r2, #:upper16:.LC77
	ldr	r4, [sp]
	mov	r1, #4096
	ldr	lr, [sp, #4]
	add	sp, sp, #8
	add	r3, r3, #13
	b	snprintf
	.fnend
	.size	rndis_manufacturer_show, .-rndis_manufacturer_show
	.align	2
	.syntax unified
	.arm
	.fpu softvfp
	.type	rmnet_xport_names_show, %function
rmnet_xport_names_show:
	.fnstart
	@ args = 0, pretend = 0, frame = 0
	@ frame_needed = 0, uses_anonymous_args = 0
	@ link register save eliminated.
	mov	r0, r2
	movw	r2, #:lower16:.LC77
	ldr	r3, .L1285
	movt	r2, #:upper16:.LC77
	mov	r1, #4096
	b	snprintf
.L1286:
	.align	2
.L1285:
	.word	.LANCHOR1+3176
	.fnend
	.size	rmnet_xport_names_show, .-rmnet_xport_names_show
	.align	2
	.syntax unified
	.arm
	.fpu softvfp
	.type	rmnet_transports_show, %function
rmnet_transports_show:
	.fnstart
	@ args = 0, pretend = 0, frame = 0
	@ frame_needed = 0, uses_anonymous_args = 0
	@ link register save eliminated.
	mov	r0, r2
	movw	r2, #:lower16:.LC77
	ldr	r3, .L1288
	movt	r2, #:upper16:.LC77
	mov	r1, #4096
	b	snprintf
.L1289:
	.align	2
.L1288:
	.word	.LANCHOR1+3228
	.fnend
	.size	rmnet_transports_show, .-rmnet_transports_show
	.align	2
	.syntax unified
	.arm
	.fpu softvfp
	.type	mbim_transports_show, %function
mbim_transports_show:
	.fnstart
	@ args = 0, pretend = 0, frame = 0
	@ frame_needed = 0, uses_anonymous_args = 0
	@ link register save eliminated.
	mov	r0, r2
	movw	r2, #:lower16:.LC77
	ldr	r3, .L1291
	movt	r2, #:upper16:.LC77
	mov	r1, #4096
	b	snprintf
.L1292:
	.align	2
.L1291:
	.word	.LANCHOR1+3280
	.fnend
	.size	mbim_transports_show, .-mbim_transports_show
	.align	2
	.syntax unified
	.arm
	.fpu softvfp
	.type	start_out_transfer, %function
start_out_transfer:
	.fnstart
	@ args = 0, pretend = 0, frame = 0
	@ frame_needed = 0, uses_anonymous_args = 0
	strd	r4, [sp, #-24]!
	.save {r4, r5, r6, r7, r8, lr}
	strd	r6, [sp, #8]
	str	r8, [sp, #16]
	str	lr, [sp, #20]
	ldr	r4, [r0, #8]
	cmp	r4, #0
	beq	.L1294
	ldr	r0, [r4, #88]
	mov	r5, r1
	ldr	r6, [r4, #104]
	ldr	r7, [r1, #24]
	add	r0, r0, #44
	bl	_raw_spin_lock_irq
	mov	r3, #1
	mov	r2, #2
	str	r2, [r5, #4]
	str	r3, [r5, #28]
	ldr	r0, [r4, #88]
	add	r0, r0, #44
	bl	_raw_spin_unlock_irq
	ldr	r3, [r6, #8]
	mov	r1, r7
	mov	r0, r6
	mov	r2, #208
	ldr	r3, [r3, #16]
	blx	r3
	subs	r3, r0, #0
	beq	.L1306
	mov	r2, #0
	cmn	r3, #108
	str	r2, [r5, #4]
	str	r2, [r5, #28]
	beq	.L1306
	cmn	r3, #95
	bne	.L1298
	ldr	r2, [r7, #4]
	cmp	r2, #0
	beq	.L1306
.L1298:
	ldr	r0, [r4, #84]
	movw	r1, #:lower16:.LC85
	movt	r1, #:upper16:.LC85
	ldr	r2, [r6, #4]
	add	r0, r0, #32
	bl	dev_warn
.L1306:
	mov	r0, #1
.L1296:
	ldrd	r4, [sp]
	ldrd	r6, [sp, #8]
	ldr	r8, [sp, #16]
	add	sp, sp, #20
	ldr	pc, [sp], #4
.L1294:
	ldr	r0, [r0]
	movw	r1, #:lower16:.LC83
	movw	r3, #805
	movt	r1, #:upper16:.LC83
	ldr	r2, .L1307
	add	r0, r0, #32
	bl	dev_err
	movw	r0, #:lower16:.LC84
	movw	r1, #550
	movt	r0, #:upper16:.LC84
	bl	warn_slowpath_null
	mov	r0, r4
	b	.L1296
.L1308:
	.align	2
.L1307:
	.word	.LANCHOR2+604
	.fnend
	.size	start_out_transfer, .-start_out_transfer
	.section	.text.unlikely,"ax",%progbits
	.align	2
	.syntax unified
	.arm
	.fpu softvfp
	.type	override_id, %function
override_id:
	.fnstart
	@ args = 0, pretend = 0, frame = 0
	@ frame_needed = 0, uses_anonymous_args = 0
	push	{r4, lr}
	.save {r4, lr}
	mov	r4, r1
	ldrb	r3, [r1]	@ zero_extendqisi2
	cmp	r3, #0
	bne	.L1310
	ldrb	r3, [r0, #48]	@ zero_extendqisi2
	cmp	r3, #253
	bls	.L1311
	ldr	r0, [r0]
	movw	r1, #:lower16:.LC86
	movt	r1, #:upper16:.LC86
	add	r0, r0, #32
	bl	dev_warn
	b	.L1310
.L1311:
	add	r3, r3, #1
	uxtb	r3, r3
	strb	r3, [r0, #48]
	strb	r3, [r1]
.L1310:
	ldrb	r0, [r4]	@ zero_extendqisi2
	pop	{r4, pc}
	.fnend
	.size	override_id, .-override_id
	.text
	.align	2
	.syntax unified
	.arm
	.fpu softvfp
	.type	rmnet_sdio_response_complete, %function
rmnet_sdio_response_complete:
	.fnstart
	@ args = 0, pretend = 0, frame = 0
	@ frame_needed = 0, uses_anonymous_args = 0
	ldr	r3, [r1, #44]
	cmn	r3, #104
	bxeq	lr
	cmp	r3, #0
	bxeq	lr
	cmn	r3, #108
	bxeq	lr
	mov	ip, r1
	.save {r4, lr}
	str	r4, [sp, #-8]!
	movw	r1, #:lower16:.LC87
	str	lr, [sp, #4]
	ldr	r2, [r0, #4]
	.pad #8
	sub	sp, sp, #8
	ldr	r4, [ip, #32]
	movt	r1, #:upper16:.LC87
	ldr	lr, [ip, #4]
	ldr	ip, [ip, #48]
	ldr	r0, [r4, #84]
	ldr	r0, [r0]
	stm	sp, {ip, lr}
	add	r0, r0, #32
	bl	_dev_info
	add	sp, sp, #8
	@ sp needed
	ldr	r4, [sp]
	add	sp, sp, #4
	ldr	pc, [sp], #4
	.fnend
	.size	rmnet_sdio_response_complete, .-rmnet_sdio_response_complete
	.align	2
	.syntax unified
	.arm
	.fpu softvfp
	.type	rmnet_mux_response_complete, %function
rmnet_mux_response_complete:
	.fnstart
	@ args = 0, pretend = 0, frame = 0
	@ frame_needed = 0, uses_anonymous_args = 0
	ldr	r3, [r1, #44]
	cmn	r3, #104
	bxeq	lr
	cmp	r3, #0
	bxeq	lr
	cmn	r3, #108
	bxeq	lr
	mov	ip, r1
	.save {r4, lr}
	str	r4, [sp, #-8]!
	movw	r1, #:lower16:.LC88
	str	lr, [sp, #4]
	ldr	r2, [r0, #4]
	.pad #8
	sub	sp, sp, #8
	ldr	r4, [ip, #32]
	movt	r1, #:upper16:.LC88
	ldr	lr, [ip, #4]
	ldr	ip, [ip, #48]
	ldr	r0, [r4, #84]
	ldr	r0, [r0]
	stm	sp, {ip, lr}
	add	r0, r0, #32
	bl	_dev_info
	add	sp, sp, #8
	@ sp needed
	ldr	r4, [sp]
	add	sp, sp, #4
	ldr	pc, [sp], #4
	.fnend
	.size	rmnet_mux_response_complete, .-rmnet_mux_response_complete
	.align	2
	.syntax unified
	.arm
	.fpu softvfp
	.type	composite_show_suspended, %function
composite_show_suspended:
	.fnstart
	@ args = 0, pretend = 0, frame = 0
	@ frame_needed = 0, uses_anonymous_args = 0
	.save {r4, lr}
	str	r4, [sp, #-8]!
	mov	r4, r2
	str	lr, [sp, #4]
	bl	dev_get_drvdata
	ldrb	r2, [r0, #16]	@ zero_extendqisi2
	movw	r1, #:lower16:.LC72
	mov	r0, r4
	movt	r1, #:upper16:.LC72
	and	r2, r2, #1
	bl	sprintf
	ldr	r4, [sp]
	add	sp, sp, #4
	mov	r0, #2
	ldr	pc, [sp], #4
	.fnend
	.size	composite_show_suspended, .-composite_show_suspended
	.align	2
	.syntax unified
	.arm
	.fpu softvfp
	.type	usb30en_show, %function
usb30en_show:
	.fnstart
	@ args = 0, pretend = 0, frame = 0
	@ frame_needed = 0, uses_anonymous_args = 0
	@ link register save eliminated.
	movw	r3, #:lower16:.LANCHOR1
	movw	r1, #:lower16:.LC89
	movt	r3, #:upper16:.LANCHOR1
	mov	r0, r2
	movt	r1, #:upper16:.LC89
	ldrb	r2, [r3, #3330]	@ zero_extendqisi2
	b	sprintf
	.fnend
	.size	usb30en_show, .-usb30en_show
	.align	2
	.syntax unified
	.arm
	.fpu softvfp
	.type	fsg_show_ro, %function
fsg_show_ro:
	.fnstart
	@ args = 0, pretend = 0, frame = 0
	@ frame_needed = 0, uses_anonymous_args = 0
	mov	r3, r0
	.save {r4, lr}
	str	r4, [sp, #-8]!
	mov	r0, r2
	str	lr, [sp, #4]
	ldr	r2, [r3, #-48]
	movw	r1, #:lower16:.LC72
	movt	r1, #:upper16:.LC72
	cmp	r2, #0
	ldrb	r2, [r3, #-24]	@ zero_extendqisi2
	ubfxne	r2, r2, #1, #1
	andeq	r2, r2, #1
	bl	sprintf
	ldr	r4, [sp]
	add	sp, sp, #4
	mov	r0, #2
	ldr	pc, [sp], #4
	.fnend
	.size	fsg_show_ro, .-fsg_show_ro
	.align	2
	.syntax unified
	.arm
	.fpu softvfp
	.type	fsg_show_nofua, %function
fsg_show_nofua:
	.fnstart
	@ args = 0, pretend = 0, frame = 0
	@ frame_needed = 0, uses_anonymous_args = 0
	.save {r4, lr}
	str	r4, [sp, #-8]!
	movw	r1, #:lower16:.LC90
	str	lr, [sp, #4]
	ldrb	r3, [r0, #-24]	@ zero_extendqisi2
	movt	r1, #:upper16:.LC90
	mov	r0, r2
	lsr	r2, r3, #7
	bl	sprintf
	ldr	r4, [sp]
	add	sp, sp, #4
	mov	r0, #2
	ldr	pc, [sp], #4
	.fnend
	.size	fsg_show_nofua, .-fsg_show_nofua
	.align	2
	.syntax unified
	.arm
	.fpu softvfp
	.type	fsg_show_cdrom, %function
fsg_show_cdrom:
	.fnstart
	@ args = 0, pretend = 0, frame = 0
	@ frame_needed = 0, uses_anonymous_args = 0
	.save {r4, lr}
	str	r4, [sp, #-8]!
	movw	r1, #:lower16:.LC72
	str	lr, [sp, #4]
	ldrb	r3, [r0, #-24]	@ zero_extendqisi2
	movt	r1, #:upper16:.LC72
	mov	r0, r2
	ubfx	r2, r3, #3, #1
	bl	sprintf
	ldr	r4, [sp]
	add	sp, sp, #4
	mov	r0, #2
	ldr	pc, [sp], #4
	.fnend
	.size	fsg_show_cdrom, .-fsg_show_cdrom
	.align	2
	.syntax unified
	.arm
	.fpu softvfp
	.type	sua_version_info_show, %function
sua_version_info_show:
	.fnstart
	@ args = 0, pretend = 0, frame = 0
	@ frame_needed = 0, uses_anonymous_args = 0
	strd	r4, [sp, #-16]!
	.save {r4, r5, r6, lr}
	mov	r4, r2
	str	r6, [sp, #8]
	str	lr, [sp, #12]
	bl	dev_get_drvdata
	ldr	r3, [r0, #4]
	movw	r1, #:lower16:.LC91
	mov	r0, r4
	movt	r1, #:upper16:.LC91
	ldr	r2, [r3, #96]
	add	r2, r2, #235
	bl	sprintf
	mov	r5, r0
	movw	r0, #:lower16:.LC92
	ldr	r1, .L1358
	mov	r2, r4
	movt	r0, #:upper16:.LC92
	bl	printk
	ldr	r6, [sp, #8]
	mov	r0, r5
	ldrd	r4, [sp]
	add	sp, sp, #12
	ldr	pc, [sp], #4
.L1359:
	.align	2
.L1358:
	.word	.LANCHOR2+624
	.fnend
	.size	sua_version_info_show, .-sua_version_info_show
	.align	2
	.syntax unified
	.arm
	.fpu softvfp
	.type	mass_storage_product_show, %function
mass_storage_product_show:
	.fnstart
	@ args = 0, pretend = 0, frame = 0
	@ frame_needed = 0, uses_anonymous_args = 0
	.save {r4, lr}
	str	r4, [sp, #-8]!
	mov	r4, r2
	str	lr, [sp, #4]
	bl	dev_get_drvdata
	ldr	r3, [r0, #4]
	movw	r1, #:lower16:.LC77
	mov	r0, r4
	movt	r1, #:upper16:.LC77
	ldr	r4, [sp]
	ldr	lr, [sp, #4]
	add	sp, sp, #8
	ldr	r2, [r3, #96]
	add	r2, r2, #218
	b	sprintf
	.fnend
	.size	mass_storage_product_show, .-mass_storage_product_show
	.align	2
	.syntax unified
	.arm
	.fpu softvfp
	.type	mass_storage_vendor_show, %function
mass_storage_vendor_show:
	.fnstart
	@ args = 0, pretend = 0, frame = 0
	@ frame_needed = 0, uses_anonymous_args = 0
	.save {r4, lr}
	str	r4, [sp, #-8]!
	mov	r4, r2
	str	lr, [sp, #4]
	bl	dev_get_drvdata
	ldr	r3, [r0, #4]
	movw	r1, #:lower16:.LC77
	mov	r0, r4
	movt	r1, #:upper16:.LC77
	ldr	r4, [sp]
	ldr	lr, [sp, #4]
	add	sp, sp, #8
	ldr	r2, [r3, #96]
	add	r2, r2, #209
	b	sprintf
	.fnend
	.size	mass_storage_vendor_show, .-mass_storage_vendor_show
	.align	2
	.syntax unified
	.arm
	.fpu softvfp
	.type	acm_instances_show, %function
acm_instances_show:
	.fnstart
	@ args = 0, pretend = 0, frame = 0
	@ frame_needed = 0, uses_anonymous_args = 0
	.save {r4, lr}
	str	r4, [sp, #-8]!
	mov	r4, r2
	str	lr, [sp, #4]
	bl	dev_get_drvdata
	ldr	r3, [r0, #4]
	movw	r1, #:lower16:.LC72
	mov	r0, r4
	movt	r1, #:upper16:.LC72
	ldr	r4, [sp]
	ldr	lr, [sp, #4]
	add	sp, sp, #8
	ldr	r2, [r3]
	b	sprintf
	.fnend
	.size	acm_instances_show, .-acm_instances_show
	.align	2
	.syntax unified
	.arm
	.fpu softvfp
	.type	midi_alsa_show, %function
midi_alsa_show:
	.fnstart
	@ args = 0, pretend = 0, frame = 0
	@ frame_needed = 0, uses_anonymous_args = 0
	.save {r4, lr}
	str	r4, [sp, #-8]!
	mov	r4, r2
	str	lr, [sp, #4]
	bl	dev_get_drvdata
	ldr	r3, [r0, #4]
	movw	r1, #:lower16:.LC81
	mov	r0, r4
	movt	r1, #:upper16:.LC81
	ldr	r4, [sp]
	ldr	lr, [sp, #4]
	add	sp, sp, #8
	ldrd	r2, [r3]
	b	sprintf
	.fnend
	.size	midi_alsa_show, .-midi_alsa_show
	.align	2
	.syntax unified
	.arm
	.fpu softvfp
	.type	composite_disconnect, %function
composite_disconnect:
	.fnstart
	@ args = 0, pretend = 0, frame = 0
	@ frame_needed = 0, uses_anonymous_args = 0
	strd	r4, [sp, #-24]!
	.save {r4, r5, r6, r7, r8, lr}
	add	r0, r0, #32
	strd	r6, [sp, #8]
	str	r8, [sp, #16]
	str	lr, [sp, #20]
	bl	dev_get_drvdata
	mov	r8, r0
	mov	r0, #0
	bl	set_string_mode
	movw	r0, #:lower16:.LC93
	ldr	r1, .L1387
	add	r5, r8, #60
	movt	r0, #:upper16:.LC93
	bl	printk
	mov	r0, r5
	bl	_raw_spin_lock_irqsave
	ldr	r3, [r8, #12]
	mov	r6, r0
	cmp	r3, #0
	beq	.L1369
	ldr	r4, [r3, #36]!
	cmp	r4, r3
	sub	r4, r4, #72
	beq	.L1371
	mov	r7, #0
.L1370:
	ldr	r3, [r4, #48]
	mov	r0, r4
	cmp	r3, #0
	beq	.L1372
	blx	r3
	str	r7, [r4, #80]
.L1386:
	ldr	r3, [r8, #12]
	ldr	r4, [r4, #72]
	add	r3, r3, #36
	cmp	r4, r3
	sub	r4, r4, #72
	bne	.L1370
.L1371:
	movw	r3, #:lower16:.LANCHOR1
	mov	r2, #0
	movt	r3, #:upper16:.LANCHOR1
	ldr	r3, [r3, #2252]
	str	r2, [r8, #12]
	str	r2, [r8, #56]
	ldr	r3, [r3, #32]
	cmp	r3, r2
	beq	.L1375
.L1374:
	mov	r0, r8
	blx	r3
.L1376:
	ldr	r3, [r8, #56]
	cmp	r3, #0
	beq	.L1375
	ldr	r0, [r8]
	movw	r1, #:lower16:.LC94
	movt	r1, #:upper16:.LC94
	add	r0, r0, #32
	bl	_dev_info
	mov	r3, #0
	str	r3, [r8, #56]
.L1375:
	mov	r1, r6
	mov	r0, r5
	ldrd	r4, [sp]
	ldrd	r6, [sp, #8]
	ldr	r8, [sp, #16]
	ldr	lr, [sp, #20]
	add	sp, sp, #24
	b	_raw_spin_unlock_irqrestore
.L1369:
	movw	r3, #:lower16:.LANCHOR1
	movt	r3, #:upper16:.LANCHOR1
	ldr	r3, [r3, #2252]
	ldr	r3, [r3, #32]
	cmp	r3, #0
	bne	.L1374
	b	.L1376
.L1372:
	str	r3, [r4, #80]
	b	.L1386
.L1388:
	.align	2
.L1387:
	.word	.LANCHOR2+648
	.fnend
	.size	composite_disconnect, .-composite_disconnect
	.align	2
	.syntax unified
	.arm
	.fpu softvfp
	.type	eth_qc_stop, %function
eth_qc_stop:
	.fnstart
	@ args = 0, pretend = 0, frame = 0
	@ frame_needed = 0, uses_anonymous_args = 0
	strd	r4, [sp, #-24]!
	.save {r4, r5, r6, r7, r8, lr}
	mov	r4, r0
	strd	r6, [sp, #8]
	str	r8, [sp, #16]
	str	lr, [sp, #20]
	ldr	r1, [r0, #576]
	ldr	r6, [r0, #1220]
	cmp	r1, #0
	beq	.L1401
	add	r1, r1, #80
	mov	r0, #0
	bl	_set_bit
.L1392:
	add	r5, r4, #1216
	mov	r0, r5
	bl	_raw_spin_lock_irqsave
	ldr	r3, [r4, #1220]
	mov	r7, r0
	cmp	r3, #0
	beq	.L1391
	ldr	r3, [r6, #116]
	cmp	r3, #0
	beq	.L1391
	mov	r0, r6
	blx	r3
.L1391:
	mov	r0, r5
	mov	r1, r7
	bl	_raw_spin_unlock_irqrestore
	ldrd	r4, [sp]
	mov	r0, #0
	ldrd	r6, [sp, #8]
	ldr	r8, [sp, #16]
	add	sp, sp, #20
	ldr	pc, [sp], #4
.L1401:
	movw	r0, #:lower16:.LC95
	movw	r1, #1847
	movt	r0, #:upper16:.LC95
	bl	warn_slowpath_null
	movw	r0, #:lower16:.LC96
	movt	r0, #:upper16:.LC96
	bl	printk
	b	.L1392
	.fnend
	.size	eth_qc_stop, .-eth_qc_stop
	.align	2
	.syntax unified
	.arm
	.fpu softvfp
	.type	ghsuart_send_cpkt_tomodem, %function
ghsuart_send_cpkt_tomodem:
	.fnstart
	@ args = 0, pretend = 0, frame = 0
	@ frame_needed = 0, uses_anonymous_args = 0
	movw	r3, #:lower16:.LANCHOR1
	strd	r4, [sp, #-24]!
	.save {r4, r5, r6, r7, r8, lr}
	mov	r5, r1
	movt	r3, #:upper16:.LANCHOR1
	strd	r6, [sp, #8]
	mov	ip, r0
	str	r8, [sp, #16]
	str	lr, [sp, #20]
	ldr	r1, [r3, #1876]
	cmp	r0, r1
	bcs	.L1413
	mov	r1, #84
	mla	r3, r1, r0, r3
	ldr	r4, [r3, #1880]
	cmp	r4, #0
	beq	.L1414
	ldr	r0, [r4, #88]
	ubfx	r0, r0, #2, #1
	cmp	r0, #0
	beq	.L1415
	mov	r1, #32
	mov	r0, r2
	mov	r6, r2
	bl	__kmalloc
	subs	r7, r0, #0
	mvneq	r0, #11
	beq	.L1402
	mov	r2, r6
	mov	r1, r5
	bl	memcpy
	ldr	r1, .L1417
	ldr	r0, .L1417+4
	bl	___ratelimit
	cmp	r0, #0
	bne	.L1416
.L1407:
	ldr	r3, [r4, #104]
	mov	r0, r7
	add	r3, r3, #1
	str	r3, [r4, #104]
	bl	kfree
	mvn	r0, #18
.L1402:
	ldrd	r4, [sp]
	ldrd	r6, [sp, #8]
	ldr	r8, [sp, #16]
	add	sp, sp, #20
	ldr	pc, [sp], #4
.L1415:
	ldr	r3, [r4, #104]
	add	r3, r3, #1
	str	r3, [r4, #104]
	b	.L1402
.L1414:
	movw	r0, #:lower16:.LC12
	ldr	r1, .L1417
	movt	r0, #:upper16:.LC12
	bl	printk
	mvn	r0, #18
	b	.L1402
.L1413:
	movw	r0, #:lower16:.LC16
	mov	r2, ip
	ldr	r1, .L1417
	movt	r0, #:upper16:.LC16
	bl	printk
	mvn	r0, #18
	b	.L1402
.L1416:
	movw	r0, #:lower16:.LC97
	mvn	r2, #18
	ldr	r1, .L1417
	movt	r0, #:upper16:.LC97
	bl	printk
	b	.L1407
.L1418:
	.align	2
.L1417:
	.word	.LANCHOR2+672
	.word	.LANCHOR0+244
	.fnend
	.size	ghsuart_send_cpkt_tomodem, .-ghsuart_send_cpkt_tomodem
	.align	2
	.syntax unified
	.arm
	.fpu softvfp
	.type	rmnet_smd_disable, %function
rmnet_smd_disable:
	.fnstart
	@ args = 0, pretend = 0, frame = 0
	@ frame_needed = 0, uses_anonymous_args = 0
	.save {r4, lr}
	str	r4, [sp, #-8]!
	mov	r4, r0
	mov	r3, #0
	str	lr, [sp, #4]
	ldr	r0, [r0, #96]
	str	r3, [r4, #168]
	ldr	r3, [r0, #8]
	ldr	r2, [r3, #36]
	cmp	r2, #0
	beq	.L1420
	blx	r2
	ldr	r0, [r4, #96]
	ldr	r3, [r0, #8]
.L1420:
	ldr	r3, [r3, #4]
	blx	r3
	ldr	r0, [r4, #88]
	ldr	r3, [r0, #8]
	ldr	r2, [r3, #36]
	cmp	r2, #0
	beq	.L1421
	blx	r2
	ldr	r0, [r4, #88]
	ldr	r3, [r0, #8]
.L1421:
	ldr	r3, [r3, #4]
	blx	r3
	ldr	r0, [r4, #92]
	ldr	r3, [r0, #8]
	ldr	r2, [r3, #36]
	cmp	r2, #0
	beq	.L1422
	blx	r2
	ldr	r0, [r4, #92]
	ldr	r3, [r0, #8]
.L1422:
	ldr	r3, [r3, #4]
	blx	r3
	ldr	lr, [sp, #4]
	add	r2, r4, #408
	mov	r0, #4
	ldr	r1, [r4, #388]
	ldr	r4, [sp]
	add	sp, sp, #8
	b	queue_work_on
	.fnend
	.size	rmnet_smd_disable, .-rmnet_smd_disable
	.align	2
	.syntax unified
	.arm
	.fpu softvfp
	.type	rmnet_smd_ch_probe, %function
rmnet_smd_ch_probe:
	.fnstart
	@ args = 0, pretend = 0, frame = 0
	@ frame_needed = 0, uses_anonymous_args = 0
	movw	r3, #:lower16:.LANCHOR1
	.save {r4, lr}
	str	r4, [sp, #-8]!
	mov	r0, #4
	movt	r3, #:upper16:.LANCHOR1
	str	lr, [sp, #4]
	ldr	r3, [r3, #3332]
	ldr	r1, [r3, #388]
	add	r2, r3, #392
	bl	queue_work_on
	ldr	r4, [sp]
	add	sp, sp, #4
	mov	r0, #0
	ldr	pc, [sp], #4
	.fnend
	.size	rmnet_smd_ch_probe, .-rmnet_smd_ch_probe
	.align	2
	.syntax unified
	.arm
	.fpu softvfp
	.type	gs_read_complete, %function
gs_read_complete:
	.fnstart
	@ args = 0, pretend = 0, frame = 0
	@ frame_needed = 0, uses_anonymous_args = 0
	strd	r4, [sp, #-24]!
	.save {r4, r5, r6, r7, r8, lr}
	mov	r5, r1
	strd	r6, [sp, #8]
	str	r8, [sp, #16]
	str	lr, [sp, #20]
	ldr	r4, [r0]
	mov	r0, r4
	add	r7, r4, #48
	bl	_raw_spin_lock_irqsave
	ldr	r8, [r5, #48]
	add	lr, r5, #36
	movw	r2, #:lower16:.LANCHOR1
	ldr	r3, [r4, #128]
	movt	r2, #:upper16:.LANCHOR1
	mov	r6, r0
	ldr	ip, [r4, #52]
	mov	r0, #4
	str	lr, [r4, #52]
	ldr	r1, [r2, #3336]
	add	r2, r4, #60
	add	r3, r3, r8
	str	r3, [r4, #128]
	str	r7, [r5, #36]
	str	ip, [r5, #40]
	str	lr, [ip]
	bl	queue_work_on
	ldr	r8, [sp, #16]
	mov	r1, r6
	mov	r0, r4
	ldrd	r4, [sp]
	ldrd	r6, [sp, #8]
	ldr	lr, [sp, #20]
	add	sp, sp, #24
	b	_raw_spin_unlock_irqrestore
	.fnend
	.size	gs_read_complete, .-gs_read_complete
	.align	2
	.syntax unified
	.arm
	.fpu softvfp
	.type	gs_unthrottle, %function
gs_unthrottle:
	.fnstart
	@ args = 0, pretend = 0, frame = 0
	@ frame_needed = 0, uses_anonymous_args = 0
	strd	r4, [sp, #-16]!
	.save {r4, r5, r6, lr}
	str	r6, [sp, #8]
	str	lr, [sp, #12]
	ldr	r4, [r0, #280]
	cmp	r4, #0
	beq	.L1437
	mov	r0, r4
	bl	_raw_spin_lock_irqsave
	ldr	r3, [r4, #4]
	mov	r5, r0
	cmp	r3, #0
	beq	.L1439
	movw	r3, #:lower16:.LANCHOR1
	add	r2, r4, #60
	movt	r3, #:upper16:.LANCHOR1
	mov	r0, #4
	ldr	r1, [r3, #3336]
	bl	queue_work_on
.L1439:
	mov	r1, r5
	mov	r0, r4
	ldrd	r4, [sp]
	ldr	r6, [sp, #8]
	ldr	lr, [sp, #12]
	add	sp, sp, #16
	b	_raw_spin_unlock_irqrestore
.L1437:
	ldrd	r4, [sp]
	ldr	r6, [sp, #8]
	add	sp, sp, #12
	ldr	pc, [sp], #4
	.fnend
	.size	gs_unthrottle, .-gs_unthrottle
	.align	2
	.syntax unified
	.arm
	.fpu softvfp
	.type	android_resume, %function
android_resume:
	.fnstart
	@ args = 0, pretend = 0, frame = 0
	@ frame_needed = 0, uses_anonymous_args = 0
	strd	r4, [sp, #-24]!
	.save {r4, r5, r6, r7, r8, lr}
	strd	r6, [sp, #8]
	mov	r6, r0
	add	r0, r0, #32
	str	r8, [sp, #16]
	str	lr, [sp, #20]
	bl	dev_get_drvdata
	movw	r3, #:lower16:.LANCHOR1
	ldr	r2, .L1454
	movt	r3, #:upper16:.LANCHOR1
	ldr	r3, [r3, #2244]
	cmp	r3, r2
	sub	r4, r3, #424
	bne	.L1447
	b	.L1445
.L1453:
	ldr	r3, [r4, #424]
	cmp	r3, r2
	sub	r4, r3, #424
	beq	.L1445
.L1447:
	ldr	r3, [r3, #-416]
	cmp	r0, r3
	bne	.L1453
.L1445:
	add	r5, r0, #60
	mov	r0, r5
	bl	_raw_spin_lock_irqsave
	ldrb	r3, [r4, #54]	@ zero_extendqisi2
	mov	r7, r0
	cmp	r3, #0
	beq	.L1448
	mov	r0, #0
	movw	r3, #:lower16:system_wq
	movt	r3, #:upper16:system_wq
	add	r2, r4, #140
	strb	r0, [r4, #54]
	ldr	r1, [r3]
	mov	r0, #4
	bl	queue_work_on
.L1448:
	mov	r0, r5
	mov	r1, r7
	bl	_raw_spin_unlock_irqrestore
	ldrd	r4, [sp]
	mov	r0, r6
	ldrd	r6, [sp, #8]
	ldr	r8, [sp, #16]
	ldr	lr, [sp, #20]
	add	sp, sp, #24
	b	composite_resume
.L1455:
	.align	2
.L1454:
	.word	.LANCHOR1+2244
	.fnend
	.size	android_resume, .-android_resume
	.align	2
	.global	gsdio_write_complete
	.syntax unified
	.arm
	.fpu softvfp
	.type	gsdio_write_complete, %function
gsdio_write_complete:
	.fnstart
	@ args = 0, pretend = 0, frame = 0
	@ frame_needed = 0, uses_anonymous_args = 0
	strd	r4, [sp, #-24]!
	.save {r4, r5, r6, r7, r8, lr}
	strd	r6, [sp, #8]
	str	r8, [sp, #16]
	str	lr, [sp, #20]
	ldr	r4, [r0]
	.pad #8
	sub	sp, sp, #8
	cmp	r4, #0
	beq	.L1468
	add	r7, r4, #4
	mov	r6, r0
	mov	r0, r7
	mov	r5, r1
	bl	_raw_spin_lock_irqsave
	mov	r3, r4
	add	r2, r5, #36
	ldr	r1, [r3, #52]!
	mov	r8, r0
	str	r2, [r1, #4]
	str	r1, [r5, #36]
	str	r3, [r5, #40]
	ldr	r3, [r4, #76]
	str	r2, [r4, #52]
	add	r3, r3, #1
	str	r3, [r4, #76]
	ldr	r3, [r5, #44]
	cmn	r3, #108
	beq	.L1459
	cmp	r3, #0
	bne	.L1469
.L1460:
	movw	r3, #:lower16:.LANCHOR1
	add	r2, r4, #60
	movt	r3, #:upper16:.LANCHOR1
	mov	r0, #4
	ldr	r1, [r3, #3340]
	bl	queue_work_on
.L1459:
	mov	r1, r8
	mov	r0, r7
	add	sp, sp, #8
	@ sp needed
	ldrd	r4, [sp]
	ldrd	r6, [sp, #8]
	ldr	r8, [sp, #16]
	ldr	lr, [sp, #20]
	add	sp, sp, #24
	b	_raw_spin_unlock_irqrestore
.L1469:
	ldr	ip, [r6, #4]
	movw	r0, #:lower16:.LC98
	mov	r2, r4
	ldr	r1, .L1470
	movt	r0, #:upper16:.LC98
	str	ip, [sp]
	str	r3, [sp, #4]
	ldr	r3, [r4]
	bl	printk
	b	.L1460
.L1468:
	ldr	r1, .L1470
	movw	r0, #:lower16:.LC12
	movt	r0, #:upper16:.LC12
	add	sp, sp, #8
	@ sp needed
	ldrd	r4, [sp]
	ldrd	r6, [sp, #8]
	ldr	r8, [sp, #16]
	ldr	lr, [sp, #20]
	add	sp, sp, #24
	b	printk
.L1471:
	.align	2
.L1470:
	.word	.LANCHOR2+700
	.fnend
	.size	gsdio_write_complete, .-gsdio_write_complete
	.align	2
	.global	gsdio_ctrl_notify_modem
	.syntax unified
	.arm
	.fpu softvfp
	.type	gsdio_ctrl_notify_modem, %function
gsdio_ctrl_notify_modem:
	.fnstart
	@ args = 0, pretend = 0, frame = 0
	@ frame_needed = 0, uses_anonymous_args = 0
	strd	r4, [sp, #-16]!
	.save {r4, r5, r6, lr}
	movw	r4, #:lower16:.LANCHOR1
	movt	r4, #:upper16:.LANCHOR1
	str	r6, [sp, #8]
	ldr	r3, [r4]
	str	lr, [sp, #12]
	cmp	r1, r3
	bcs	.L1485
	cmp	r0, #0
	beq	.L1486
	mov	r3, #108
	lsl	r2, r2, #1
	mla	r1, r3, r1, r4
	and	r3, r2, #2
	ldr	r5, [r1, #28]
	ldr	r2, [r5, #180]
	cmp	r2, r3
	beq	.L1472
	ldr	r2, [r5, #108]
	str	r3, [r5, #180]
	cmp	r2, #0
	beq	.L1487
	cmp	r3, #0
	beq	.L1477
	ldr	r3, [r0, #136]
	cmp	r3, #0
	beq	.L1477
	ldr	r1, [r5, #176]
	blx	r3
.L1477:
	add	r2, r5, #80
	ldr	r1, [r4, #3340]
	mov	r0, #4
	ldrd	r4, [sp]
	ldr	r6, [sp, #8]
	ldr	lr, [sp, #12]
	add	sp, sp, #16
	b	queue_work_on
.L1472:
	ldrd	r4, [sp]
	ldr	r6, [sp, #8]
	add	sp, sp, #12
	ldr	pc, [sp], #4
.L1486:
	movw	r0, #:lower16:.LC100
	ldrd	r4, [sp]
	ldr	r6, [sp, #8]
	movt	r0, #:upper16:.LC100
	ldr	lr, [sp, #12]
	add	sp, sp, #16
	ldr	r1, .L1488
	b	printk
.L1485:
	movw	r0, #:lower16:.LC99
	mov	r2, r1
	ldrd	r4, [sp]
	ldr	r6, [sp, #8]
	movt	r0, #:upper16:.LC99
	ldr	lr, [sp, #12]
	add	sp, sp, #16
	ldr	r1, .L1488
	b	printk
.L1487:
	movw	r0, #:lower16:.LC101
	mov	r2, r5
	ldr	r3, [r5]
	ldr	r1, .L1488
	movt	r0, #:upper16:.LC101
	ldrd	r4, [sp]
	ldr	r6, [sp, #8]
	ldr	lr, [sp, #12]
	add	sp, sp, #16
	b	printk
.L1489:
	.align	2
.L1488:
	.word	.LANCHOR2+724
	.fnend
	.size	gsdio_ctrl_notify_modem, .-gsdio_ctrl_notify_modem
	.align	2
	.syntax unified
	.arm
	.fpu softvfp
	.type	gsmd_write_complete, %function
gsmd_write_complete:
	.fnstart
	@ args = 0, pretend = 0, frame = 0
	@ frame_needed = 0, uses_anonymous_args = 0
	strd	r4, [sp, #-20]!
	.save {r4, r5, r6, r7, lr}
	strd	r6, [sp, #8]
	str	lr, [sp, #16]
	ldr	r7, [r0]
	.pad #12
	sub	sp, sp, #12
	cmp	r7, #0
	beq	.L1502
	add	r6, r7, #4
	mov	r5, r0
	mov	r0, r6
	mov	r4, r1
	bl	_raw_spin_lock
	ldr	r3, [r7, #72]
	ldr	r3, [r3, #8]
	tst	r3, #1
	beq	.L1492
	ldr	r3, [r4, #44]
	cmn	r3, #108
	beq	.L1492
	cmp	r3, #0
	bne	.L1503
.L1494:
	mov	r3, r7
	movw	r1, #:lower16:.LANCHOR1
	ldr	lr, [r3, #44]!
	add	ip, r4, #36
	movt	r1, #:upper16:.LANCHOR1
	ldr	r1, [r1, #3344]
	add	r2, r7, #52
	mov	r0, #4
	str	ip, [lr, #4]
	str	lr, [r4, #36]
	str	r3, [r4, #40]
	str	ip, [r7, #44]
	bl	queue_work_on
	mov	r0, r6
	add	sp, sp, #12
	@ sp needed
	ldrd	r4, [sp]
	ldrd	r6, [sp, #8]
	ldr	lr, [sp, #16]
	add	sp, sp, #20
	b	_raw_spin_unlock
.L1492:
	mov	r0, r6
	bl	_raw_spin_unlock
	ldr	r0, [r4]
	bl	kfree
	ldr	r3, [r5, #8]
	mov	r1, r4
	mov	r0, r5
	ldr	r3, [r3, #12]
	add	sp, sp, #12
	@ sp needed
	ldrd	r4, [sp]
	ldrd	r6, [sp, #8]
	ldr	lr, [sp, #16]
	add	sp, sp, #20
	bx	r3	@ indirect register sibling call
.L1502:
	ldr	r1, .L1504
	movw	r0, #:lower16:.LC12
	movt	r0, #:upper16:.LC12
	add	sp, sp, #12
	@ sp needed
	ldrd	r4, [sp]
	ldrd	r6, [sp, #8]
	ldr	lr, [sp, #16]
	add	sp, sp, #20
	b	printk
.L1503:
	ldr	ip, [r5, #4]
	movw	r0, #:lower16:.LC98
	mov	r2, r7
	ldr	r1, .L1504
	movt	r0, #:upper16:.LC98
	str	ip, [sp]
	str	r3, [sp, #4]
	ldr	r3, [r7]
	bl	printk
	b	.L1494
.L1505:
	.align	2
.L1504:
	.word	.LANCHOR2+748
	.fnend
	.size	gsmd_write_complete, .-gsmd_write_complete
	.align	2
	.syntax unified
	.arm
	.fpu softvfp
	.type	gsmd_read_complete, %function
gsmd_read_complete:
	.fnstart
	@ args = 0, pretend = 0, frame = 0
	@ frame_needed = 0, uses_anonymous_args = 0
	strd	r4, [sp, #-24]!
	.save {r4, r5, r6, r7, r8, lr}
	strd	r6, [sp, #8]
	str	r8, [sp, #16]
	str	lr, [sp, #20]
	ldr	r5, [r0]
	cmp	r5, #0
	beq	.L1514
	add	r7, r5, #4
	mov	r6, r0
	mov	r0, r7
	mov	r4, r1
	bl	_raw_spin_lock
	ldr	r3, [r5, #72]
	ldr	r3, [r3, #8]
	tst	r3, #1
	beq	.L1508
	ldr	r3, [r4, #44]
	cmn	r3, #108
	beq	.L1508
	ldr	ip, [r5, #24]
	add	lr, r4, #36
	add	r1, r5, #20
	movw	r3, #:lower16:.LANCHOR1
	add	r2, r5, #28
	movt	r3, #:upper16:.LANCHOR1
	str	lr, [r5, #24]
	mov	r0, #4
	str	r1, [r4, #36]
	ldr	r1, [r3, #3344]
	str	ip, [r4, #40]
	str	lr, [ip]
	bl	queue_work_on
	ldrd	r4, [sp]
	mov	r0, r7
	ldrd	r6, [sp, #8]
	ldr	r8, [sp, #16]
	ldr	lr, [sp, #20]
	add	sp, sp, #24
	b	_raw_spin_unlock
.L1508:
	mov	r0, r7
	bl	_raw_spin_unlock
	ldr	r0, [r4]
	bl	kfree
	ldr	r3, [r6, #8]
	mov	r1, r4
	mov	r0, r6
	ldrd	r4, [sp]
	ldrd	r6, [sp, #8]
	ldr	r8, [sp, #16]
	ldr	lr, [sp, #20]
	add	sp, sp, #24
	ldr	r3, [r3, #12]
	bx	r3	@ indirect register sibling call
.L1514:
	movw	r0, #:lower16:.LC12
	ldrd	r4, [sp]
	ldrd	r6, [sp, #8]
	movt	r0, #:upper16:.LC12
	ldr	r8, [sp, #16]
	ldr	lr, [sp, #20]
	add	sp, sp, #24
	ldr	r1, .L1515
	b	printk
.L1516:
	.align	2
.L1515:
	.word	.LANCHOR2+768
	.fnend
	.size	gsmd_read_complete, .-gsmd_read_complete
	.align	2
	.syntax unified
	.arm
	.fpu softvfp
	.type	acc_complete_set_hid_report_desc, %function
acc_complete_set_hid_report_desc:
	.fnstart
	@ args = 0, pretend = 0, frame = 0
	@ frame_needed = 0, uses_anonymous_args = 0
	strd	r4, [sp, #-16]!
	.save {r4, r5, r6, lr}
	str	r6, [sp, #8]
	str	lr, [sp, #12]
	ldr	r4, [r1, #32]
	ldr	r3, [r1, #44]
	ldr	r5, [r1, #48]
	ldr	r6, [r4, #12]
	cmp	r3, #0
	bne	.L1521
	ldr	r0, [r4, #20]
	mov	r2, r5
	ldr	r3, [r4, #28]
	ldr	r1, [r1]
	add	r0, r0, r3
	bl	memcpy
	ldr	r3, [r4, #24]
	ldr	r2, [r4, #28]
	add	r5, r5, r2
	cmp	r5, r3
	str	r5, [r4, #28]
	beq	.L1522
	ldrd	r4, [sp]
	ldr	r6, [sp, #8]
	add	sp, sp, #12
	ldr	pc, [sp], #4
.L1522:
	movw	r3, #:lower16:system_wq
	add	r2, r6, #1744
	ldrd	r4, [sp]
	movt	r3, #:upper16:system_wq
	ldr	r6, [sp, #8]
	add	r2, r2, #8
	ldr	lr, [sp, #12]
	mov	r0, #4
	add	sp, sp, #16
	ldr	r1, [r3]
	b	queue_work_on
.L1521:
	movw	r0, #:lower16:.LC102
	ldrd	r4, [sp]
	mov	r1, r3
	ldr	r6, [sp, #8]
	movt	r0, #:upper16:.LC102
	ldr	lr, [sp, #12]
	add	sp, sp, #16
	b	printk
	.fnend
	.size	acc_complete_set_hid_report_desc, .-acc_complete_set_hid_report_desc
	.align	2
	.syntax unified
	.arm
	.fpu softvfp
	.type	rmnet_sdio_setup, %function
rmnet_sdio_setup:
	.fnstart
	@ args = 0, pretend = 0, frame = 8
	@ frame_needed = 0, uses_anonymous_args = 0
	strd	r4, [sp, #-36]!
	.save {r4, r5, r6, r7, r8, r9, r10, fp, lr}
	strd	r6, [sp, #8]
	strd	r8, [sp, #16]
	strd	r10, [sp, #24]
	str	lr, [sp, #32]
	ldr	r2, [r0, #20]
	.pad #28
	sub	sp, sp, #28
	ldr	r3, [r0, #192]
	ldrh	r8, [r1, #2]	@ unaligned
	ldrh	r6, [r1, #6]	@ unaligned
	ldr	r7, [r2, #24]
	cmp	r3, #0
	ldr	r5, [r7, #4]
	beq	.L1532
	ldrh	r3, [r1]	@ unaligned
	movw	r2, #8482
	mov	r9, r1
	mov	r4, r0
	rev16	r3, r3
	uxth	r3, r3
	cmp	r3, r2
	beq	.L1525
	movw	r2, #41217
	cmp	r3, r2
	beq	.L1526
	cmp	r3, #8448
	beq	.L1537
.L1534:
	mvn	r4, #94
.L1523:
	mov	r0, r4
	add	sp, sp, #28
	@ sp needed
	ldrd	r4, [sp]
	ldrd	r6, [sp, #8]
	ldrd	r8, [sp, #16]
	ldrd	r10, [sp, #24]
	add	sp, sp, #32
	ldr	pc, [sp], #4
.L1526:
	cmp	r8, #0
	bne	.L1534
	ldrh	r3, [r1, #4]	@ unaligned
	add	r10, r0, #188
	mov	r0, r10
	str	r3, [sp, #20]
	bl	_raw_spin_lock
	mov	r2, r4
	ldr	fp, [r2, #120]!
	cmp	fp, r2
	beq	.L1538
	ldm	fp, {r1, r2}
	mov	lr, #256
	mov	ip, #512
	mov	r0, r10
	mov	r9, fp
	str	r2, [r1, #4]
	str	r1, [r2]
	str	lr, [fp]
	str	ip, [fp, #4]
	ldr	r2, [r4, #128]
	sub	r2, r2, #1
	str	r2, [r4, #128]
	bl	_raw_spin_unlock
	ldmdb	fp, {r1, r8}
	ldr	r0, [r5]
	cmp	r6, r8
	movcc	r8, r6
	mov	r2, r8
	bl	memcpy
	movw	r3, #:lower16:rmnet_sdio_response_complete
	str	r4, [r5, #32]
	movt	r3, #:upper16:rmnet_sdio_response_complete
	str	r3, [r5, #28]
	ldr	r0, [r9, #-8]!
	bl	kfree
	mov	r0, r9
	bl	kfree
	ldr	r3, [r4, #368]
	cmp	r8, r6
	movge	r6, #0
	movlt	r6, #1
	add	r3, r3, #1
	str	r3, [r4, #368]
.L1528:
	ldrb	r3, [r5, #26]	@ zero_extendqisi2
	str	r8, [r5, #4]
	mov	r1, r5
	mov	r2, #32
	bfi	r3, r6, #1, #1
	strb	r3, [r5, #26]
	ldr	r3, [r7]
	ldr	r0, [r3, #4]
	ldr	r3, [r0, #8]
	ldr	r3, [r3, #16]
	blx	r3
	subs	r4, r0, #0
	bge	.L1523
	ldr	r0, [r7]
	movw	r1, #:lower16:.LC59
	mov	r2, r4
	movt	r1, #:upper16:.LC59
	add	r0, r0, #32
	bl	dev_err
	b	.L1523
.L1537:
	movw	r3, #:lower16:rmnet_sdio_command_complete
	mov	r8, r6
	str	r0, [r5, #32]
	movt	r3, #:upper16:rmnet_sdio_command_complete
	mov	r6, #0
	str	r3, [r5, #28]
	b	.L1528
.L1525:
	ldr	r3, [r0, #332]
	tst	r8, #1
	add	r2, r0, #336
	mov	r8, #0
	mov	r0, #4
	ldr	r1, [r4, #200]
	orrne	r3, r3, #2
	biceq	r3, r3, #2
	str	r3, [r4, #332]
	bl	queue_work_on
	subs	r6, r6, r8
	movne	r6, #1
	b	.L1528
.L1532:
	mvn	r4, #106
	b	.L1523
.L1538:
	ldr	r0, [r7]
	movw	r1, #:lower16:.LC103
	str	r8, [sp]
	ldr	r2, [sp, #20]
	movt	r1, #:upper16:.LC103
	mvn	r4, #94
	ldrb	r3, [r9, #1]	@ zero_extendqisi2
	add	r0, r0, #32
	str	r2, [sp, #4]
	ldrb	r2, [r9]	@ zero_extendqisi2
	str	r6, [sp, #8]
	bl	_dev_info
	mov	r0, r10
	bl	_raw_spin_unlock
	b	.L1523
	.fnend
	.size	rmnet_sdio_setup, .-rmnet_sdio_setup
	.align	2
	.syntax unified
	.arm
	.fpu softvfp
	.type	android_disconnect, %function
android_disconnect:
	.fnstart
	@ args = 0, pretend = 0, frame = 0
	@ frame_needed = 0, uses_anonymous_args = 0
	strd	r4, [sp, #-32]!
	.save {r4, r5, r6, r7, r8, r9, r10, lr}
	movw	r4, #:lower16:.LANCHOR1
	strd	r6, [sp, #8]
	movt	r4, #:upper16:.LANCHOR1
	mov	r7, r0
	add	r0, r0, #32
	strd	r8, [sp, #16]
	str	r10, [sp, #24]
	str	lr, [sp, #28]
	bl	dev_get_drvdata
	ldr	r3, [r4, #2244]
	mov	r6, r0
	ldr	r2, .L1551
	sub	r5, r3, #424
	cmp	r3, r2
	bne	.L1542
	b	.L1540
.L1550:
	ldr	r3, [r5, #424]
	cmp	r3, r2
	sub	r5, r3, #424
	beq	.L1540
.L1542:
	ldr	r3, [r3, #-416]
	cmp	r6, r3
	bne	.L1550
.L1540:
	mov	r0, r7
	bl	composite_disconnect
	ldr	r4, [r4, #2520]
	add	r7, r4, #88
	mov	r0, r7
	bl	_raw_spin_lock_irqsave
	ldr	r3, [r4, #1768]
	add	lr, r4, #1760
	mov	r1, r0
	add	lr, lr, #8
	cmp	r3, lr
	ldr	r2, [r3]
	beq	.L1543
	add	r8, r4, #1776
	mov	ip, r2
	add	r8, r8, #8
	mov	r10, #256
	mov	r9, #512
	b	.L1544
.L1547:
	mov	ip, r2
.L1544:
	ldr	r0, [r3, #4]
	cmp	lr, ip
	str	r0, [r2, #4]
	str	r2, [r0]
	str	r10, [r3]
	str	r9, [r3, #4]
	ldr	r2, [r4, #1784]
	str	r3, [r2, #4]
	stm	r3, {r2, r8}
	str	r3, [r4, #1784]
	mov	r3, ip
	ldr	r2, [ip]
	bne	.L1547
.L1543:
	mov	r0, r4
	ldr	r3, [r0, #1776]!
	cmp	r0, r3
	ldr	r2, [r3]
	beq	.L1545
	mov	ip, r2
	add	r8, r0, #8
	mov	r10, #256
	mov	r9, #512
	b	.L1546
.L1548:
	mov	ip, r2
.L1546:
	ldr	lr, [r3, #4]
	cmp	r0, ip
	str	lr, [r2, #4]
	str	r2, [lr]
	str	r10, [r3]
	str	r9, [r3, #4]
	ldr	r2, [r4, #1784]
	str	r3, [r2, #4]
	stm	r3, {r2, r8}
	str	r3, [r4, #1784]
	mov	r3, ip
	ldr	r2, [ip]
	bne	.L1548
.L1545:
	mov	r0, r7
	movw	r7, #:lower16:system_wq
	bl	_raw_spin_unlock_irqrestore
	movt	r7, #:upper16:system_wq
	add	r2, r4, #1744
	ldr	r1, [r7]
	add	r6, r6, #60
	add	r2, r2, #8
	mov	r0, #4
	bl	queue_work_on
	mov	r0, r6
	bl	_raw_spin_lock_irqsave
	mov	r3, #0
	mov	r4, r0
	ldr	r1, [r7]
	add	r2, r5, #140
	mov	r0, #4
	strb	r3, [r5, #52]
	bl	queue_work_on
	ldrd	r8, [sp, #16]
	mov	r1, r4
	mov	r0, r6
	ldrd	r4, [sp]
	ldrd	r6, [sp, #8]
	ldr	r10, [sp, #24]
	ldr	lr, [sp, #28]
	add	sp, sp, #32
	b	_raw_spin_unlock_irqrestore
.L1552:
	.align	2
.L1551:
	.word	.LANCHOR1+2244
	.fnend
	.size	android_disconnect, .-android_disconnect
	.align	2
	.syntax unified
	.arm
	.fpu softvfp
	.type	ghsuart_ctrl_probe, %function
ghsuart_ctrl_probe:
	.fnstart
	@ args = 0, pretend = 0, frame = 0
	@ frame_needed = 0, uses_anonymous_args = 0
	strd	r4, [sp, #-16]!
	.save {r4, r5, r6, lr}
	movw	r2, #:lower16:.LANCHOR1
	mov	r1, #84
	str	r6, [sp, #8]
	movt	r2, #:upper16:.LANCHOR1
	str	lr, [sp, #12]
	ldr	r3, [r0, #4]
	mov	r0, #1
	mla	r3, r1, r3, r2
	ldr	r4, [r3, #1880]
	add	r1, r4, #88
	add	r5, r4, #8
	bl	_set_bit
	mov	r0, r5
	bl	_raw_spin_lock_irqsave
	ldr	r3, [r4, #12]
	mov	r6, r0
	cmp	r3, #0
	beq	.L1554
	add	r2, r4, #36
	mov	r0, #4
	ldr	r1, [r4, #32]
	bl	queue_work_on
.L1554:
	mov	r0, r5
	mov	r1, r6
	bl	_raw_spin_unlock_irqrestore
	ldrd	r4, [sp]
	mov	r0, #0
	ldr	r6, [sp, #8]
	add	sp, sp, #12
	ldr	pc, [sp], #4
	.fnend
	.size	ghsuart_ctrl_probe, .-ghsuart_ctrl_probe
	.align	2
	.syntax unified
	.arm
	.fpu softvfp
	.type	ghsuart_data_probe, %function
ghsuart_data_probe:
	.fnstart
	@ args = 0, pretend = 0, frame = 0
	@ frame_needed = 0, uses_anonymous_args = 0
	movw	r2, #:lower16:.LANCHOR1
	.save {r4, lr}
	str	r4, [sp, #-8]!
	movt	r2, #:upper16:.LANCHOR1
	str	lr, [sp, #4]
	ldr	r3, [r0, #4]
	ldr	r1, [r2, #2048]
	cmp	r1, r3
	bls	.L1564
	mov	r1, #84
	mov	r0, #1
	mla	r2, r1, r3, r2
	ldr	r4, [r2, #2052]
	add	r1, r4, #188
	bl	_set_bit
	ldr	r0, [r4, #4]
	cmp	r0, #0
	beq	.L1559
	add	r2, r4, #112
	mov	r0, #4
	ldr	r1, [r4, #108]
	bl	queue_work_on
	mov	r0, #0
.L1559:
	ldr	r4, [sp]
	add	sp, sp, #4
	ldr	pc, [sp], #4
.L1564:
	movw	r0, #:lower16:.LC104
	mov	r2, r3
	ldr	r1, .L1565
	movt	r0, #:upper16:.LC104
	bl	printk
	mvn	r0, #21
	b	.L1559
.L1566:
	.align	2
.L1565:
	.word	.LANCHOR2+788
	.fnend
	.size	ghsuart_data_probe, .-ghsuart_data_probe
	.align	2
	.syntax unified
	.arm
	.fpu softvfp
	.type	ecm_qc_suspend, %function
ecm_qc_suspend:
	.fnstart
	@ args = 0, pretend = 0, frame = 0
	@ frame_needed = 0, uses_anonymous_args = 0
	@ link register save eliminated.
	movw	r3, #:lower16:.LANCHOR1
	mov	r0, #4
	movt	r3, #:upper16:.LANCHOR1
	ldr	r2, [r3, #3348]
	ldr	r1, [r3, #3352]
	add	r2, r2, #200
	b	queue_work_on
	.fnend
	.size	ecm_qc_suspend, .-ecm_qc_suspend
	.align	2
	.syntax unified
	.arm
	.fpu softvfp
	.type	mbim_suspend, %function
mbim_suspend:
	.fnstart
	@ args = 0, pretend = 0, frame = 0
	@ frame_needed = 0, uses_anonymous_args = 0
	movw	r0, #:lower16:.LC105
	.save {r4, lr}
	str	r4, [sp, #-8]!
	ldr	r1, .L1570
	movt	r0, #:upper16:.LC105
	str	lr, [sp, #4]
	bl	printk
	movw	r3, #:lower16:.LANCHOR1
	ldr	r4, [sp]
	mov	r0, #4
	movt	r3, #:upper16:.LANCHOR1
	ldr	lr, [sp, #4]
	add	sp, sp, #8
	ldr	r2, [r3, #3348]
	ldr	r1, [r3, #3352]
	add	r2, r2, #200
	b	queue_work_on
.L1571:
	.align	2
.L1570:
	.word	.LANCHOR2+808
	.fnend
	.size	mbim_suspend, .-mbim_suspend
	.align	2
	.syntax unified
	.arm
	.fpu softvfp
	.type	ecm_qc_resume, %function
ecm_qc_resume:
	.fnstart
	@ args = 0, pretend = 0, frame = 0
	@ frame_needed = 0, uses_anonymous_args = 0
	@ link register save eliminated.
	movw	r3, #:lower16:.LANCHOR1
	mov	r0, #4
	movt	r3, #:upper16:.LANCHOR1
	ldr	r2, [r3, #3348]
	ldr	r1, [r3, #3352]
	add	r2, r2, #216
	b	queue_work_on
	.fnend
	.size	ecm_qc_resume, .-ecm_qc_resume
	.align	2
	.syntax unified
	.arm
	.fpu softvfp
	.type	mbim_resume, %function
mbim_resume:
	.fnstart
	@ args = 0, pretend = 0, frame = 0
	@ frame_needed = 0, uses_anonymous_args = 0
	movw	r0, #:lower16:.LC106
	.save {r4, lr}
	str	r4, [sp, #-8]!
	ldr	r1, .L1575
	movt	r0, #:upper16:.LC106
	str	lr, [sp, #4]
	bl	printk
	movw	r3, #:lower16:.LANCHOR1
	ldr	r4, [sp]
	mov	r0, #4
	movt	r3, #:upper16:.LANCHOR1
	ldr	lr, [sp, #4]
	add	sp, sp, #8
	ldr	r2, [r3, #3348]
	ldr	r1, [r3, #3352]
	add	r2, r2, #216
	b	queue_work_on
.L1576:
	.align	2
.L1575:
	.word	.LANCHOR2+824
	.fnend
	.size	mbim_resume, .-mbim_resume
	.align	2
	.syntax unified
	.arm
	.fpu softvfp
	.type	rmnet_smd_debug_read_stats, %function
rmnet_smd_debug_read_stats:
	.fnstart
	@ args = 0, pretend = 0, frame = 184
	@ frame_needed = 0, uses_anonymous_args = 0
	strd	r4, [sp, #-36]!
	.save {r4, r5, r6, r7, r8, r9, r10, fp, lr}
	movw	r5, #:lower16:kmalloc_caches
	strd	r6, [sp, #8]
	movt	r5, #:upper16:kmalloc_caches
	strd	r8, [sp, #16]
	strd	r10, [sp, #24]
	str	lr, [sp, #32]
	ldr	r4, [r0, #124]
	.pad #260
	sub	sp, sp, #260
	str	r1, [sp, #84]
	strd	r2, [sp, #88]
	add	lr, r4, #260
	add	ip, r4, #324
	ldrd	r2, [lr]
	ldrd	r0, [lr, #8]
	ldrd	r6, [ip]
	strd	r2, [sp, #128]
	ldrd	r2, [lr, #16]
	strd	r0, [sp, #136]
	ldrd	r0, [lr, #24]
	strd	r2, [sp, #144]
	ldrd	r2, [lr, #32]
	strd	r0, [sp, #152]
	ldrd	r0, [lr, #40]
	strd	r6, [sp, #192]
	ldrd	r6, [ip, #24]
	strd	r2, [sp, #160]
	ldrd	r2, [lr, #48]
	strd	r0, [sp, #168]
	ldrd	r0, [lr, #56]
	strd	r2, [sp, #176]
	ldrd	r2, [ip, #8]
	strd	r0, [sp, #184]
	ldrd	r0, [ip, #16]
	strd	r2, [sp, #200]
	ldrd	r2, [ip, #32]
	strd	r0, [sp, #208]
	ldrd	r0, [ip, #40]
	strd	r6, [sp, #216]
	ldrd	r6, [ip, #48]
	strd	r2, [sp, #224]
	ldrd	r2, [ip, #56]
	strd	r0, [sp, #232]
	ldr	r0, [r5, #36]
	strd	r6, [sp, #240]
	strd	r2, [sp, #248]
	cmp	r0, #0
	beq	.L1580
	mov	r2, #512
	movw	r1, #32976
	bl	kmem_cache_alloc_trace
	subs	r5, r0, #0
	beq	.L1583
.L1578:
	add	r10, r4, #164
	mov	r0, r10
	bl	_raw_spin_lock_irqsave
	ldr	lr, [r4, #168]
	ldr	r3, [r4, #440]
	ldr	r2, [r4, #444]
	ldr	r8, [r4, #424]
	ldr	r9, [r4, #428]
	ldr	r7, [r4, #432]
	ldr	ip, [r4, #448]
	strd	r2, [sp, #72]
	ldr	r3, [sp, #172]
	ldr	r2, [sp, #236]
	sub	r1, r9, r8
	ldr	r6, [r4, #436]
	str	r0, [sp, #112]
	ldr	r0, [r4, #260]
	str	ip, [sp, #80]
	ldr	fp, [r4, #452]
	str	lr, [sp, #96]
	strd	r2, [sp, #116]
	str	r1, [sp, #124]
	bl	smd_read_avail
	str	r0, [sp, #100]
	ldr	r0, [r4, #260]
	bl	smd_write_avail
	str	r0, [sp, #104]
	ldr	r0, [r4, #324]
	bl	smd_read_avail
	str	r0, [sp, #108]
	ldr	r0, [r4, #324]
	sub	r4, r7, r6
	bl	smd_write_avail
	ldr	r3, [sp, #76]
	str	r8, [sp, #12]
	ldr	ip, [sp, #80]
	str	r6, [sp, #24]
	ldr	r2, [sp, #116]
	str	r4, [sp, #28]
	ldr	r6, [sp, #72]
	ldr	r1, [sp, #96]
	sub	ip, ip, fp
	ldr	r4, [sp, #76]
	str	r2, [sp]
	ldr	r2, [sp, #72]
	str	r0, [sp, #68]
	mov	r0, r5
	str	ip, [sp, #52]
	ldr	ip, [sp, #100]
	stmib	sp, {r1, r9}
	ldr	r1, [sp, #124]
	sub	lr, r2, r3
	movw	r2, #:lower16:.LC107
	ldr	r3, [sp, #120]
	movt	r2, #:upper16:.LC107
	str	ip, [sp, #56]
	ldr	ip, [sp, #104]
	str	lr, [sp, #40]
	ldr	lr, [sp, #80]
	str	r1, [sp, #16]
	mov	r1, #512
	str	r7, [sp, #20]
	str	r6, [sp, #32]
	str	ip, [sp, #60]
	ldr	ip, [sp, #108]
	str	r4, [sp, #36]
	str	lr, [sp, #44]
	str	fp, [sp, #48]
	str	ip, [sp, #64]
	bl	scnprintf
	mov	r4, r0
	ldr	r1, [sp, #112]
	mov	r0, r10
	bl	_raw_spin_unlock_irqrestore
	str	r4, [sp]
	mov	r3, r5
	ldrd	r0, [sp, #84]
	ldr	r2, [sp, #92]
	bl	simple_read_from_buffer
	mov	r4, r0
	mov	r0, r5
	bl	kfree
.L1577:
	mov	r0, r4
	add	sp, sp, #260
	@ sp needed
	ldrd	r4, [sp]
	ldrd	r6, [sp, #8]
	ldrd	r8, [sp, #16]
	ldrd	r10, [sp, #24]
	add	sp, sp, #32
	ldr	pc, [sp], #4
.L1580:
	mov	r5, #16
	b	.L1578
.L1583:
	mvn	r4, #11
	b	.L1577
	.fnend
	.size	rmnet_smd_debug_read_stats, .-rmnet_smd_debug_read_stats
	.align	2
	.syntax unified
	.arm
	.fpu softvfp
	.type	rmnet_sdio_read_stats, %function
rmnet_sdio_read_stats:
	.fnstart
	@ args = 0, pretend = 0, frame = 0
	@ frame_needed = 0, uses_anonymous_args = 0
	movw	ip, #:lower16:kmalloc_caches
	strd	r4, [sp, #-32]!
	.save {r4, r5, r6, r7, r8, r9, r10, lr}
	movt	ip, #:upper16:kmalloc_caches
	strd	r6, [sp, #8]
	mov	r7, r1
	strd	r8, [sp, #16]
	mov	r8, r2
	mov	r9, r3
	str	r10, [sp, #24]
	str	lr, [sp, #28]
	ldr	r4, [r0, #124]
	.pad #64
	sub	sp, sp, #64
	ldr	r0, [ip, #40]
	cmp	r0, #0
	beq	.L1587
	mov	r2, #1024
	movw	r1, #32976
	bl	kmem_cache_alloc_trace
	subs	r5, r0, #0
	beq	.L1590
.L1585:
	add	r6, r4, #188
	mov	r0, r6
	bl	_raw_spin_lock_irqsave
	ldr	r1, [r4, #196]
	movw	r2, #:lower16:.LC108
	mov	r10, r0
	ldr	ip, [r4, #324]
	movt	r2, #:upper16:.LC108
	mov	r0, r5
	ldr	r3, [r4, #356]
	str	ip, [sp, #56]
	ldr	ip, [r4, #320]
	str	r1, [sp, #48]
	mov	r1, #4096
	str	ip, [sp, #52]
	ldr	ip, [r4, #128]
	str	ip, [sp, #44]
	ldr	ip, [r4, #368]
	str	ip, [sp, #40]
	ldr	ip, [r4, #332]
	str	ip, [sp, #36]
	ldr	ip, [r4, #116]
	str	ip, [sp, #32]
	ldr	ip, [r4, #372]
	str	ip, [sp, #28]
	ldr	ip, [r4, #328]
	str	ip, [sp, #24]
	ldr	ip, [r4, #180]
	str	ip, [sp, #20]
	ldr	ip, [r4, #168]
	str	ip, [sp, #16]
	ldr	ip, [r4, #360]
	str	ip, [sp, #12]
	ldr	ip, [r4, #364]
	str	ip, [sp, #8]
	ldr	ip, [r4, #152]
	str	ip, [sp, #4]
	ldr	ip, [r4, #140]
	str	ip, [sp]
	bl	scnprintf
	mov	r4, r0
	mov	r1, r10
	mov	r0, r6
	bl	_raw_spin_unlock_irqrestore
	str	r4, [sp]
	mov	r2, r9
	mov	r1, r8
	mov	r0, r7
	mov	r3, r5
	bl	simple_read_from_buffer
	mov	r4, r0
	mov	r0, r5
	bl	kfree
.L1584:
	mov	r0, r4
	add	sp, sp, #64
	@ sp needed
	ldrd	r4, [sp]
	ldrd	r6, [sp, #8]
	ldrd	r8, [sp, #16]
	ldr	r10, [sp, #24]
	add	sp, sp, #28
	ldr	pc, [sp], #4
.L1587:
	mov	r5, #16
	b	.L1585
.L1590:
	mvn	r4, #11
	b	.L1584
	.fnend
	.size	rmnet_sdio_read_stats, .-rmnet_sdio_read_stats
	.align	2
	.syntax unified
	.arm
	.fpu softvfp
	.type	rmnet_mux_read_stats, %function
rmnet_mux_read_stats:
	.fnstart
	@ args = 0, pretend = 0, frame = 32
	@ frame_needed = 0, uses_anonymous_args = 0
	movw	ip, #:lower16:kmalloc_caches
	strd	r4, [sp, #-36]!
	.save {r4, r5, r6, r7, r8, r9, r10, fp, lr}
	movt	ip, #:upper16:kmalloc_caches
	strd	r6, [sp, #8]
	mov	r7, r1
	strd	r8, [sp, #16]
	mov	r8, r2
	mov	r9, r3
	strd	r10, [sp, #24]
	str	lr, [sp, #32]
	ldr	r4, [r0, #124]
	.pad #92
	sub	sp, sp, #92
	ldr	r0, [ip, #40]
	cmp	r0, #0
	beq	.L1595
	mov	r2, #1024
	mov	r1, #208
	bl	kmem_cache_alloc_trace
	subs	r5, r0, #0
	beq	.L1599
.L1592:
	add	r6, r4, #368
	mov	r0, r6
	bl	_raw_spin_lock_irqsave
	ldr	r3, [r4, #208]
	ldr	r2, [r4, #364]
	ldr	fp, [r4, #404]
	ldr	r1, [r4, #408]
	str	r3, [sp, #60]
	ldr	r3, [r4, #232]
	str	r0, [sp, #84]
	ldr	r0, [r4, #412]
	sub	r2, r2, #1
	cmp	r2, #9
	ldr	r10, [r4, #416]
	movwhi	ip, #:lower16:.LC109
	ldr	lr, [r4, #424]
	str	r3, [sp, #64]
	ldr	r3, [r4, #312]
	movthi	ip, #:upper16:.LC109
	str	r3, [sp, #68]
	ldr	r3, [r4, #336]
	str	r0, [sp, #72]
	ldr	r0, [r4, #420]
	str	r3, [sp, #76]
	ldr	r3, [r4, #348]
	str	r3, [sp, #80]
	ldr	r3, [r4, #352]
	str	r3, [sp, #56]
	ldr	r3, [r4, #400]
	bls	.L1600
.L1594:
	ldr	r4, [r4, #356]
	movw	r2, #:lower16:.LC110
	str	fp, [sp]
	str	r10, [sp, #12]
	ldr	r10, [sp, #56]
	movt	r2, #:upper16:.LC110
	str	lr, [sp, #36]
	ldr	lr, [sp, #76]
	strd	r0, [sp, #4]
	mov	r1, #1024
	mov	r0, r5
	str	r10, [sp, #16]
	ldr	r10, [sp, #60]
	str	ip, [sp, #48]
	str	r4, [sp, #52]
	str	r10, [sp, #20]
	ldr	r10, [sp, #64]
	str	lr, [sp, #40]
	ldr	lr, [sp, #80]
	str	r10, [sp, #24]
	ldr	r10, [sp, #68]
	str	r10, [sp, #28]
	ldr	r10, [sp, #72]
	str	lr, [sp, #44]
	str	r10, [sp, #32]
	bl	scnprintf
	mov	r4, r0
	ldr	r1, [sp, #84]
	mov	r0, r6
	bl	_raw_spin_unlock_irqrestore
	str	r4, [sp]
	mov	r2, r9
	mov	r1, r8
	mov	r0, r7
	mov	r3, r5
	bl	simple_read_from_buffer
	mov	r4, r0
	mov	r0, r5
	bl	kfree
.L1591:
	mov	r0, r4
	add	sp, sp, #92
	@ sp needed
	ldrd	r4, [sp]
	ldrd	r6, [sp, #8]
	ldrd	r8, [sp, #16]
	ldrd	r10, [sp, #24]
	add	sp, sp, #32
	ldr	pc, [sp], #4
.L1600:
	movw	ip, #:lower16:.LANCHOR2
	movt	ip, #:upper16:.LANCHOR2
	add	r2, ip, r2, lsl #2
	ldr	ip, [r2, #836]
	b	.L1594
.L1595:
	mov	r5, #16
	b	.L1592
.L1599:
	mvn	r4, #11
	b	.L1591
	.fnend
	.size	rmnet_mux_read_stats, .-rmnet_mux_read_stats
	.align	2
	.syntax unified
	.arm
	.fpu softvfp
	.type	debug_read_status, %function
debug_read_status:
	.fnstart
	@ args = 0, pretend = 0, frame = 8
	@ frame_needed = 0, uses_anonymous_args = 0
	strd	r4, [sp, #-36]!
	.save {r4, r5, r6, r7, r8, r9, r10, fp, lr}
	strd	r6, [sp, #8]
	strd	r8, [sp, #16]
	strd	r10, [sp, #24]
	str	lr, [sp, #32]
	ldr	r5, [r0, #124]
	.pad #20
	sub	sp, sp, #20
	ldmib	r5, {r7, r8}
	cmp	r7, #0
	cmpne	r8, #0
	beq	.L1614
	mov	fp, r3
	movw	r3, #:lower16:kmalloc_caches
	movt	r3, #:upper16:kmalloc_caches
	mov	r9, r1
	ldr	r0, [r3, #36]
	mov	r10, r2
	cmp	r0, #0
	beq	.L1607
	mov	r2, #512
	movw	r1, #32976
	bl	kmem_cache_alloc_trace
	subs	r6, r0, #0
	beq	.L1615
.L1604:
	mov	r0, r5
	bl	_raw_spin_lock_irqsave
	movw	r2, #:lower16:.LC112
	mov	r1, #512
	ldr	r3, [r5, #128]
	movt	r2, #:upper16:.LC112
	str	r0, [sp, #12]
	mov	r0, r6
	bl	scnprintf
	movw	r2, #:lower16:.LC113
	rsb	r1, r0, #512
	ldr	r3, [r5, #132]
	mov	r4, r0
	movt	r2, #:upper16:.LC113
	add	r0, r6, r0
	bl	scnprintf
	ldr	ip, [r5, #128]
	add	r4, r4, r0
	movw	r2, #:lower16:.LC114
	ldr	r3, [r5, #132]
	rsb	r1, r4, #512
	add	r0, r6, r4
	movt	r2, #:upper16:.LC114
	sub	r3, ip, r3
	bl	scnprintf
	add	r4, r4, r0
	movw	r2, #:lower16:.LC115
	ldr	r3, [r5, #136]
	rsb	r1, r4, #512
	add	r0, r6, r4
	movt	r2, #:upper16:.LC115
	bl	scnprintf
	add	r4, r4, r0
	movw	r2, #:lower16:.LC116
	ldr	r3, [r5, #140]
	rsb	r1, r4, #512
	add	r0, r6, r4
	movt	r2, #:upper16:.LC116
	bl	scnprintf
	ldr	ip, [r5, #136]
	add	r4, r4, r0
	movw	r2, #:lower16:.LC117
	ldr	r3, [r5, #140]
	rsb	r1, r4, #512
	add	r0, r6, r4
	movt	r2, #:upper16:.LC117
	sub	r3, ip, r3
	bl	scnprintf
	add	r4, r4, r0
	movw	r2, #:lower16:.LC118
	ldr	r3, [r8, #164]
	rsb	r1, r4, #512
	add	r0, r6, r4
	movt	r2, #:upper16:.LC118
	bl	scnprintf
	ldr	r3, [r7, #108]
	add	r4, r4, r0
	cmp	r3, #0
	beq	.L1605
	mov	r0, r7
	blx	r3
	cmp	r0, #0
	movw	r2, #:lower16:.LC119
	rsb	r1, r4, #512
	add	r0, r6, r4
	movne	r3, #2
	moveq	r3, #0
	movt	r2, #:upper16:.LC119
	bl	scnprintf
	add	r4, r4, r0
.L1605:
	mov	r0, r5
	ldr	r1, [sp, #12]
	bl	_raw_spin_unlock_irqrestore
	str	r4, [sp]
	mov	r2, fp
	mov	r1, r10
	mov	r0, r9
	mov	r3, r6
	bl	simple_read_from_buffer
	mov	r4, r0
	mov	r0, r6
	bl	kfree
.L1601:
	mov	r0, r4
	add	sp, sp, #20
	@ sp needed
	ldrd	r4, [sp]
	ldrd	r6, [sp, #8]
	ldrd	r8, [sp, #16]
	ldrd	r10, [sp, #24]
	add	sp, sp, #32
	ldr	pc, [sp], #4
.L1607:
	mov	r6, #16
	b	.L1604
.L1615:
	mvn	r4, #11
	b	.L1601
.L1614:
	movw	r0, #:lower16:.LC111
	mvn	r4, #21
	movt	r0, #:upper16:.LC111
	bl	printk
	b	.L1601
	.fnend
	.size	debug_read_status, .-debug_read_status
	.align	2
	.syntax unified
	.arm
	.fpu softvfp
	.type	debug_sdio_read_stats, %function
debug_sdio_read_stats:
	.fnstart
	@ args = 0, pretend = 0, frame = 16
	@ frame_needed = 0, uses_anonymous_args = 0
	movw	r0, #:lower16:kmalloc_caches
	strd	r4, [sp, #-36]!
	.save {r4, r5, r6, r7, r8, r9, r10, fp, lr}
	movt	r0, #:upper16:kmalloc_caches
	strd	r6, [sp, #8]
	strd	r8, [sp, #16]
	strd	r10, [sp, #24]
	str	lr, [sp, #32]
	ldr	r0, [r0, #40]
	.pad #68
	sub	sp, sp, #68
	str	r1, [sp, #52]
	strd	r2, [sp, #56]
	cmp	r0, #0
	beq	.L1622
	mov	r2, #1024
	movw	r1, #32976
	bl	kmem_cache_alloc_trace
	subs	r10, r0, #0
	beq	.L1626
.L1617:
	movw	r8, #:lower16:.LANCHOR1
	movt	r8, #:upper16:.LANCHOR1
	ldr	r5, [r8]
	cmp	r5, #0
	beq	.L1620
	mov	r5, #0
	movw	r3, #:lower16:.LC120
	movt	r3, #:upper16:.LC120
	mov	r6, r5
	add	r7, r8, #4
	str	r3, [sp, #48]
.L1619:
	ldr	r4, [r7, #24]
	add	r7, r7, #108
	add	r9, r4, #4
	mov	r0, r9
	bl	_raw_spin_lock_irqsave
	ldr	ip, [r4, #112]
	mov	r3, r6
	rsb	r1, r5, #4096
	mov	fp, r0
	ldr	r2, [sp, #48]
	add	r0, r10, r5
	add	r6, r6, #1
	str	ip, [sp, #40]
	ldr	ip, [r4, #108]
	str	ip, [sp, #36]
	ldr	ip, [r4, #8]
	str	ip, [sp, #32]
	ldr	ip, [r4, #76]
	str	ip, [sp, #28]
	ldr	ip, [r4, #48]
	str	ip, [sp, #24]
	ldr	ip, [r4, #44]
	str	ip, [sp, #20]
	ldr	ip, [r4, #176]
	str	ip, [sp, #16]
	ldr	ip, [r4, #180]
	str	ip, [sp, #12]
	ldr	ip, [r4, #188]
	str	ip, [sp, #8]
	ldr	ip, [r4, #184]
	stm	sp, {r4, ip}
	bl	scnprintf
	add	r5, r5, r0
	mov	r1, fp
	mov	r0, r9
	bl	_raw_spin_unlock_irqrestore
	ldr	r3, [r8]
	cmp	r6, r3
	bcc	.L1619
.L1620:
	mov	r3, r10
	ldrd	r0, [sp, #52]
	str	r5, [sp]
	ldr	r2, [sp, #60]
	bl	simple_read_from_buffer
	mov	r4, r0
	mov	r0, r10
	bl	kfree
.L1616:
	mov	r0, r4
	add	sp, sp, #68
	@ sp needed
	ldrd	r4, [sp]
	ldrd	r6, [sp, #8]
	ldrd	r8, [sp, #16]
	ldrd	r10, [sp, #24]
	add	sp, sp, #32
	ldr	pc, [sp], #4
.L1622:
	mov	r10, #16
	b	.L1617
.L1626:
	mvn	r4, #11
	b	.L1616
	.fnend
	.size	debug_sdio_read_stats, .-debug_sdio_read_stats
	.align	2
	.syntax unified
	.arm
	.fpu softvfp
	.type	debug_smd_read_stats, %function
debug_smd_read_stats:
	.fnstart
	@ args = 0, pretend = 0, frame = 48
	@ frame_needed = 0, uses_anonymous_args = 0
	movw	r0, #:lower16:kmalloc_caches
	strd	r4, [sp, #-36]!
	.save {r4, r5, r6, r7, r8, r9, r10, fp, lr}
	movt	r0, #:upper16:kmalloc_caches
	strd	r6, [sp, #8]
	strd	r8, [sp, #16]
	strd	r10, [sp, #24]
	str	lr, [sp, #32]
	ldr	r0, [r0, #36]
	.pad #92
	sub	sp, sp, #92
	str	r1, [sp, #76]
	strd	r2, [sp, #80]
	cmp	r0, #0
	beq	.L1634
	mov	r2, #512
	movw	r1, #32976
	bl	kmem_cache_alloc_trace
	subs	r3, r0, #0
	str	r3, [sp, #64]
	beq	.L1640
.L1628:
	movw	r7, #:lower16:.LANCHOR1
	movt	r7, #:upper16:.LANCHOR1
	ldr	r3, [r7, #220]
	cmp	r3, #0
	beq	.L1632
	add	fp, r7, #224
	mov	r6, #0
	movw	r3, #:lower16:.LC121
	mov	r8, fp
	movt	r3, #:upper16:.LC121
	mov	r9, r6
	mov	fp, r7
	str	r3, [sp, #72]
.L1631:
	ldr	r3, [sp, #64]
	ldr	r7, [r8, #24]
	add	r3, r3, r9
	add	r5, r7, #4
	ldr	r10, [r7, #72]
	str	r3, [sp, #44]
	rsb	r3, r9, #512
	mov	r0, r5
	str	r3, [sp, #48]
	bl	_raw_spin_lock_irqsave
	ldr	r3, [r7, #8]
	ldr	r4, [r10]
	str	r3, [sp, #60]
	ldr	r3, [r7, #160]
	cmp	r4, #0
	moveq	lr, r4
	str	r3, [sp, #52]
	ldr	r3, [r7, #164]
	str	r0, [sp, #68]
	mov	r0, r4
	str	r3, [sp, #56]
	ldr	r3, [r7, #168]
	ldr	r7, [r7, #172]
	str	r3, [sp, #48]
	beq	.L1630
	bl	smd_read_avail
	ldr	lr, [r10]
	mov	r4, r0
	cmp	lr, #0
	mov	r0, lr
	beq	.L1630
	bl	smd_write_avail
	mov	lr, r0
.L1630:
	ldr	ip, [r10, #8]
	rsb	r1, r9, #512
	add	r8, r8, #108
	ldr	r10, [r10, #8]
	str	r7, [sp]
	ldr	r0, [sp, #44]
	str	r4, [sp, #20]
	ldr	r7, [sp, #52]
	ldr	r3, [sp, #48]
	and	ip, ip, #1
	ubfx	r10, r10, #1, #1
	ldr	r2, [sp, #72]
	str	lr, [sp, #24]
	str	r7, [sp, #8]
	ldr	r7, [sp, #56]
	str	r3, [sp, #4]
	mov	r3, r6
	add	r6, r6, #1
	str	ip, [sp, #28]
	str	r7, [sp, #12]
	ldr	r7, [sp, #60]
	str	r10, [sp, #32]
	str	r7, [sp, #16]
	bl	scnprintf
	add	r9, r9, r0
	ldr	r1, [sp, #68]
	mov	r0, r5
	bl	_raw_spin_unlock_irqrestore
	ldr	r3, [fp, #220]
	cmp	r6, r3
	bcc	.L1631
	mov	r3, r9
.L1632:
	ldr	r5, [sp, #64]
	str	r3, [sp]
	ldrd	r0, [sp, #76]
	ldr	r2, [sp, #84]
	mov	r3, r5
	bl	simple_read_from_buffer
	mov	r4, r0
	mov	r0, r5
	bl	kfree
.L1627:
	mov	r0, r4
	add	sp, sp, #92
	@ sp needed
	ldrd	r4, [sp]
	ldrd	r6, [sp, #8]
	ldrd	r8, [sp, #16]
	ldrd	r10, [sp, #24]
	add	sp, sp, #32
	ldr	pc, [sp], #4
.L1634:
	mov	r3, #16
	str	r3, [sp, #64]
	b	.L1628
.L1640:
	mvn	r4, #11
	b	.L1627
	.fnend
	.size	debug_smd_read_stats, .-debug_smd_read_stats
	.align	2
	.syntax unified
	.arm
	.fpu softvfp
	.type	gbam_read_stats, %function
gbam_read_stats:
	.fnstart
	@ args = 0, pretend = 0, frame = 0
	@ frame_needed = 0, uses_anonymous_args = 0
	movw	r0, #:lower16:kmalloc_caches
	strd	r4, [sp, #-36]!
	.save {r4, r5, r6, r7, r8, r9, r10, fp, lr}
	movt	r0, #:upper16:kmalloc_caches
	strd	r6, [sp, #8]
	strd	r8, [sp, #16]
	mov	r8, r1
	mov	r9, r2
	strd	r10, [sp, #24]
	mov	r10, r3
	str	lr, [sp, #32]
	ldr	r0, [r0, #40]
	.pad #68
	sub	sp, sp, #68
	cmp	r0, #0
	beq	.L1647
	mov	r2, #1024
	movw	r1, #32976
	bl	kmem_cache_alloc_trace
	subs	r5, r0, #0
	beq	.L1651
.L1642:
	movw	r3, #:lower16:.LANCHOR1
	movt	r3, #:upper16:.LANCHOR1
	ldr	r2, [r3, #440]
	cmp	r2, #0
	ble	.L1652
	ldr	r4, [r3, #444]
	cmp	r4, #0
	beq	.L1645
	add	r6, r4, #4
	add	r7, r4, #8
	mov	r0, r6
	bl	_raw_spin_lock_irqsave
	mov	fp, r0
	mov	r0, r7
	bl	_raw_spin_lock
	ldr	r0, [r4, #20]
	add	ip, r4, #20
	movw	r2, #:lower16:.LC122
	ldr	r1, [r4, #20]
	movt	r2, #:upper16:.LC122
	mov	r3, #0
	ubfx	r0, r0, #1, #1
	ubfx	r1, r1, #2, #1
	strd	r0, [sp, #52]
	ldr	lr, [r4, #68]
	mov	r1, #1024
	mov	r0, r5
	str	lr, [sp, #48]
	ldr	lr, [r4, #44]
	str	lr, [sp, #44]
	ldr	lr, [r4, #280]
	str	lr, [sp, #40]
	ldr	lr, [r4, #276]
	str	lr, [sp, #36]
	ldr	lr, [r4, #272]
	str	lr, [sp, #32]
	ldr	lr, [r4, #268]
	str	lr, [sp, #28]
	ldr	lr, [r4, #248]
	str	lr, [sp, #24]
	ldr	lr, [r4, #244]
	str	lr, [sp, #20]
	ldr	lr, [r4, #240]
	str	lr, [sp, #16]
	ldr	lr, [r4, #260]
	str	lr, [sp, #12]
	ldr	lr, [r4, #264]
	stm	sp, {r4, ip, lr}
	bl	scnprintf
	mov	r4, r0
	mov	r0, r7
	bl	_raw_spin_unlock
	mov	r1, fp
	mov	r0, r6
	bl	_raw_spin_unlock_irqrestore
.L1645:
	str	r4, [sp]
	mov	r2, r10
	mov	r1, r9
	mov	r0, r8
	mov	r3, r5
	bl	simple_read_from_buffer
	mov	r4, r0
	mov	r0, r5
	bl	kfree
.L1641:
	mov	r0, r4
	add	sp, sp, #68
	@ sp needed
	ldrd	r4, [sp]
	ldrd	r6, [sp, #8]
	ldrd	r8, [sp, #16]
	ldrd	r10, [sp, #24]
	add	sp, sp, #32
	ldr	pc, [sp], #4
.L1652:
	mov	r4, #0
	b	.L1645
.L1647:
	mov	r5, #16
	b	.L1642
.L1651:
	mvn	r4, #11
	b	.L1641
	.fnend
	.size	gbam_read_stats, .-gbam_read_stats
	.align	2
	.syntax unified
	.arm
	.fpu softvfp
	.type	gsmd_ctrl_read_stats, %function
gsmd_ctrl_read_stats:
	.fnstart
	@ args = 0, pretend = 0, frame = 48
	@ frame_needed = 0, uses_anonymous_args = 0
	movw	r0, #:lower16:kmalloc_caches
	strd	r4, [sp, #-36]!
	.save {r4, r5, r6, r7, r8, r9, r10, fp, lr}
	movt	r0, #:upper16:kmalloc_caches
	strd	r6, [sp, #8]
	strd	r8, [sp, #16]
	strd	r10, [sp, #24]
	str	lr, [sp, #32]
	ldr	r0, [r0, #40]
	.pad #92
	sub	sp, sp, #92
	str	r1, [sp, #76]
	strd	r2, [sp, #80]
	cmp	r0, #0
	beq	.L1661
	mov	r2, #1024
	movw	r1, #32976
	bl	kmem_cache_alloc_trace
	subs	r3, r0, #0
	str	r3, [sp, #60]
	beq	.L1672
.L1654:
	ldr	r4, .L1673
	mov	r10, #0
	movw	r3, #:lower16:.LC124
	movw	r2, #:lower16:.LC123
	movw	r1, #:lower16:.LC125
	movt	r3, #:upper16:.LC124
	movt	r2, #:upper16:.LC123
	movt	r1, #:upper16:.LC125
	mov	fp, r10
	str	r3, [sp, #64]
	str	r2, [sp, #68]
	str	r1, [sp, #72]
.L1659:
	ldr	r9, [r4]
	ldr	r3, [sp, #60]
	cmp	r9, #0
	add	r6, r9, #108
	add	r8, r3, r10
	rsb	r3, r10, #1024
	mov	r0, r6
	str	r3, [sp, #40]
	beq	.L1656
	bl	_raw_spin_lock_irqsave
	ldr	lr, [sp, #68]
	str	r0, [sp, #52]
	ldr	r3, [r9, #92]
	ldr	ip, [r9, #88]
	ldr	r2, [r9]
	ldr	r1, [r9, #8]
	str	r3, [sp, #44]
	ldr	r3, [sp, #64]
	cmp	ip, #0
	ldr	r5, [r9, #8]
	movne	r3, lr
	cmp	r2, #0
	mov	r7, r2
	mov	ip, r2
	str	r3, [sp, #48]
	ldr	r3, [r9, #96]
	mov	r0, r2
	ubfx	r5, r5, #1, #1
	str	r3, [sp, #40]
	and	r3, r1, #1
	str	r3, [sp, #56]
	beq	.L1658
	bl	smd_read_avail
	ldr	ip, [r9]
	mov	r7, r0
	cmp	ip, #0
	mov	r0, ip
	beq	.L1658
	bl	smd_write_avail
	mov	ip, r0
.L1658:
	ldr	lr, [sp, #40]
	rsb	r1, r10, #1024
	mov	r0, r8
	mov	r3, fp
	ldr	r2, [sp, #72]
	str	r9, [sp]
	stmib	sp, {r9, lr}
	ldr	lr, [sp, #44]
	str	r5, [sp, #24]
	str	r7, [sp, #28]
	str	ip, [sp, #32]
	str	lr, [sp, #12]
	ldr	lr, [sp, #48]
	str	lr, [sp, #16]
	ldr	lr, [sp, #56]
	str	lr, [sp, #20]
	bl	scnprintf
	add	r10, r10, r0
	ldr	r1, [sp, #52]
	mov	r0, r6
	bl	_raw_spin_unlock_irqrestore
.L1656:
	add	fp, fp, #1
	add	r4, r4, #84
	cmp	fp, #6
	bne	.L1659
	ldr	r5, [sp, #60]
	str	r10, [sp]
	ldrd	r0, [sp, #76]
	ldr	r2, [sp, #84]
	mov	r3, r5
	bl	simple_read_from_buffer
	mov	r4, r0
	mov	r0, r5
	bl	kfree
.L1653:
	mov	r0, r4
	add	sp, sp, #92
	@ sp needed
	ldrd	r4, [sp]
	ldrd	r6, [sp, #8]
	ldrd	r8, [sp, #16]
	ldrd	r10, [sp, #24]
	add	sp, sp, #32
	ldr	pc, [sp], #4
.L1661:
	mov	r3, #16
	str	r3, [sp, #60]
	b	.L1654
.L1672:
	mvn	r4, #11
	b	.L1653
.L1674:
	.align	2
.L1673:
	.word	.LANCHOR1+528
	.fnend
	.size	gsmd_ctrl_read_stats, .-gsmd_ctrl_read_stats
	.align	2
	.syntax unified
	.arm
	.fpu softvfp
	.type	gctrl_read_stats, %function
gctrl_read_stats:
	.fnstart
	@ args = 0, pretend = 0, frame = 32
	@ frame_needed = 0, uses_anonymous_args = 0
	movw	r0, #:lower16:kmalloc_caches
	strd	r4, [sp, #-36]!
	.save {r4, r5, r6, r7, r8, r9, r10, fp, lr}
	movt	r0, #:upper16:kmalloc_caches
	strd	r6, [sp, #8]
	strd	r8, [sp, #16]
	strd	r10, [sp, #24]
	str	lr, [sp, #32]
	ldr	r0, [r0, #40]
	.pad #68
	sub	sp, sp, #68
	str	r1, [sp, #52]
	strd	r2, [sp, #56]
	cmp	r0, #0
	beq	.L1683
	mov	r2, #1024
	movw	r1, #32976
	bl	kmem_cache_alloc_trace
	subs	r10, r0, #0
	beq	.L1691
.L1676:
	movw	r9, #:lower16:.LANCHOR1
	movt	r9, #:upper16:.LANCHOR1
	ldr	r3, [r9, #1036]
	cmp	r3, #0
	beq	.L1692
	mov	r5, #0
	movw	r2, #:lower16:.LC124
	str	r9, [sp, #48]
	movw	r1, #:lower16:.LC123
	movw	r0, #:lower16:.LC126
	movt	r2, #:upper16:.LC124
	movt	r1, #:upper16:.LC123
	movt	r0, #:upper16:.LC126
	mov	r7, r5
	add	r6, r9, #1040
	str	r2, [sp, #36]
	str	r1, [sp, #40]
	str	r0, [sp, #44]
.L1680:
	ldr	r4, [r6]
	mov	r2, r5
	cmp	r4, #0
	add	r8, r4, #4
	mov	r0, r8
	beq	.L1678
	bl	_raw_spin_lock_irqsave
	ldr	lr, [r4, #84]
	mov	fp, r0
	add	r0, r10, r5
	ldr	ip, [r4, #84]
	ldr	r3, [r4, #88]
	ldr	r9, [r4, #104]
	ldr	r2, [r4, #96]
	and	lr, lr, #1
	ubfx	ip, ip, #1, #1
	ldr	r1, [r4, #100]
	str	r7, [sp]
	cmp	r3, #0
	str	r4, [sp, #4]
	str	ip, [sp, #28]
	ldr	ip, [sp, #40]
	str	r9, [sp, #16]
	ldr	r9, [sp, #36]
	str	r1, [sp, #8]
	rsb	r1, r5, #1024
	str	r2, [sp, #12]
	ldr	r2, [sp, #44]
	movne	r9, ip
	str	r9, [sp, #20]
	ldr	r3, [r6, #24]
	str	lr, [sp, #24]
	bl	scnprintf
	add	r5, r5, r0
	mov	r1, fp
	mov	r0, r8
	bl	_raw_spin_unlock_irqrestore
	ldr	r3, [sp, #48]
	mov	r2, r5
	ldr	r3, [r3, #1036]
.L1678:
	add	r7, r7, #1
	add	r6, r6, #104
	cmp	r7, r3
	bcc	.L1680
.L1681:
	str	r2, [sp]
	mov	r3, r10
	ldrd	r0, [sp, #52]
	ldr	r2, [sp, #60]
	bl	simple_read_from_buffer
	mov	r4, r0
	mov	r0, r10
	bl	kfree
.L1675:
	mov	r0, r4
	add	sp, sp, #68
	@ sp needed
	ldrd	r4, [sp]
	ldrd	r6, [sp, #8]
	ldrd	r8, [sp, #16]
	ldrd	r10, [sp, #24]
	add	sp, sp, #32
	ldr	pc, [sp], #4
.L1683:
	mov	r10, #16
	b	.L1676
.L1692:
	mov	r2, r3
	b	.L1681
.L1691:
	mvn	r4, #11
	b	.L1675
	.fnend
	.size	gctrl_read_stats, .-gctrl_read_stats
	.align	2
	.syntax unified
	.arm
	.fpu softvfp
	.type	ghsic_data_read_stats, %function
ghsic_data_read_stats:
	.fnstart
	@ args = 0, pretend = 0, frame = 32
	@ frame_needed = 0, uses_anonymous_args = 0
	movw	r0, #:lower16:kmalloc_caches
	strd	r4, [sp, #-36]!
	.save {r4, r5, r6, r7, r8, r9, r10, fp, lr}
	movt	r0, #:upper16:kmalloc_caches
	strd	r6, [sp, #8]
	strd	r8, [sp, #16]
	strd	r10, [sp, #24]
	str	lr, [sp, #32]
	ldr	r0, [r0, #48]
	.pad #76
	sub	sp, sp, #76
	str	r1, [sp, #60]
	strd	r2, [sp, #64]
	cmp	r0, #0
	beq	.L1701
	mov	r2, #4096
	movw	r1, #32976
	bl	kmem_cache_alloc_trace
	subs	r10, r0, #0
	beq	.L1704
.L1694:
	movw	fp, #:lower16:.LANCHOR1
	movt	fp, #:upper16:.LANCHOR1
	ldr	r3, [fp, #1456]
	cmp	r3, #0
	beq	.L1705
	ldr	r7, .L1706
	mov	r5, #0
	movw	r2, #:lower16:.LC127
	movw	r1, #:lower16:.LC128
	movt	r2, #:upper16:.LC127
	movt	r1, #:upper16:.LC128
	mov	r6, r5
	str	r2, [sp, #48]
	str	r1, [sp, #52]
	str	fp, [sp, #56]
.L1696:
	ldr	r4, [r7]
	mov	r2, r5
	cmp	r4, #0
	add	r8, r4, #80
	add	r9, r4, #48
	mov	r0, r8
	beq	.L1697
	bl	_raw_spin_lock_irqsave
	ldr	lr, [r4, #180]
	rsb	r1, r5, #4096
	str	r0, [sp, #44]
	ldr	ip, [r4, #180]
	add	r0, r10, r5
	add	r7, r7, #104
	ldr	r3, [r4, #164]
	ldr	r2, [sp, #48]
	and	lr, lr, #1
	ubfx	ip, ip, #1, #1
	ubfx	r3, r3, #1, #1
	str	r3, [sp, #36]
	ldr	fp, [r4, #208]
	ldr	r3, [r7, #-80]
	str	fp, [sp, #32]
	ldr	fp, [r4, #204]
	str	fp, [sp, #28]
	ldr	fp, [r4, #72]
	str	fp, [sp, #24]
	ldr	fp, [r4, #212]
	str	fp, [sp, #20]
	ldr	fp, [r4, #188]
	str	r6, [sp]
	add	r6, r6, #1
	stmib	sp, {r4, lr}
	str	ip, [sp, #12]
	str	fp, [sp, #16]
	bl	scnprintf
	add	r5, r0, r5
	ldr	r1, [sp, #44]
	mov	r0, r8
	bl	_raw_spin_unlock_irqrestore
	mov	r0, r9
	bl	_raw_spin_lock_irqsave
	ldr	ip, [r4, #164]
	rsb	r1, r5, #4096
	mov	r8, r0
	ldr	r3, [r4, #192]
	add	r0, r10, r5
	ldr	r2, [sp, #52]
	ubfx	ip, ip, #2, #1
	str	ip, [sp, #16]
	ldr	ip, [r4, #216]
	str	ip, [sp, #12]
	ldr	ip, [r4, #200]
	str	ip, [sp, #8]
	ldr	ip, [r4, #196]
	str	ip, [sp, #4]
	ldr	ip, [r4, #40]
	str	ip, [sp]
	bl	scnprintf
	add	r5, r5, r0
	mov	r1, r8
	mov	r0, r9
	bl	_raw_spin_unlock_irqrestore
	ldr	r3, [sp, #56]
	mov	r2, r5
	ldr	r3, [r3, #1456]
	cmp	r3, r6
	bhi	.L1696
.L1699:
	str	r2, [sp]
	mov	r3, r10
	ldrd	r0, [sp, #60]
	ldr	r2, [sp, #68]
	bl	simple_read_from_buffer
	mov	r4, r0
	mov	r0, r10
	bl	kfree
.L1693:
	mov	r0, r4
	add	sp, sp, #76
	@ sp needed
	ldrd	r4, [sp]
	ldrd	r6, [sp, #8]
	ldrd	r8, [sp, #16]
	ldrd	r10, [sp, #24]
	add	sp, sp, #32
	ldr	pc, [sp], #4
.L1697:
	add	r6, r6, #1
	add	r7, r7, #104
	cmp	r6, r3
	bcc	.L1696
	b	.L1699
.L1701:
	mov	r10, #16
	b	.L1694
.L1705:
	mov	r2, r3
	b	.L1699
.L1704:
	mvn	r4, #11
	b	.L1693
.L1707:
	.align	2
.L1706:
	.word	.LANCHOR1+1460
	.fnend
	.size	ghsic_data_read_stats, .-ghsic_data_read_stats
	.align	2
	.syntax unified
	.arm
	.fpu softvfp
	.type	ghsuart_ctrl_read_stats, %function
ghsuart_ctrl_read_stats:
	.fnstart
	@ args = 0, pretend = 0, frame = 24
	@ frame_needed = 0, uses_anonymous_args = 0
	movw	r0, #:lower16:kmalloc_caches
	strd	r4, [sp, #-36]!
	.save {r4, r5, r6, r7, r8, r9, r10, fp, lr}
	movt	r0, #:upper16:kmalloc_caches
	strd	r6, [sp, #8]
	strd	r8, [sp, #16]
	strd	r10, [sp, #24]
	str	lr, [sp, #32]
	ldr	r0, [r0, #40]
	.pad #52
	sub	sp, sp, #52
	str	r1, [sp, #36]
	strd	r2, [sp, #40]
	cmp	r0, #0
	beq	.L1715
	mov	r2, #1024
	movw	r1, #32976
	bl	kmem_cache_alloc_trace
	subs	r8, r0, #0
	beq	.L1724
.L1709:
	movw	r6, #:lower16:.LANCHOR1
	movt	r6, #:upper16:.LANCHOR1
	ldr	r2, [r6, #1876]
	cmp	r2, #0
	beq	.L1725
	mov	r4, #0
	movw	r10, #:lower16:.LC124
	str	r6, [sp, #28]
	movw	r9, #:lower16:.LC123
	movw	fp, #:lower16:.LC129
	movt	r9, #:upper16:.LC123
	mov	r5, r4
	movt	r10, #:upper16:.LC124
	movt	fp, #:upper16:.LC129
	str	r9, [sp, #32]
.L1713:
	mov	r3, #84
	ldr	r0, .L1726
	mov	r1, r4
	mul	r3, r3, r5
	ldr	r9, [r3, r0]
	cmp	r9, #0
	add	r6, r9, #8
	mov	r0, r6
	beq	.L1711
	bl	_raw_spin_lock_irqsave
	ldr	ip, [r9, #92]
	mov	r3, r5
	mov	r7, r0
	ldr	r2, [r9, #96]
	add	r0, r8, r4
	ldr	r1, [r9, #100]
	ldr	lr, [r9, #104]
	str	r9, [sp]
	ldr	r9, [sp, #32]
	cmp	ip, #0
	moveq	r9, r10
	stmib	sp, {r1, r2, lr}
	mov	r2, fp
	rsb	r1, r4, #1024
	str	r9, [sp, #16]
	bl	scnprintf
	add	r4, r4, r0
	mov	r1, r7
	mov	r0, r6
	bl	_raw_spin_unlock_irqrestore
	ldr	r3, [sp, #28]
	mov	r1, r4
	ldr	r2, [r3, #1876]
.L1711:
	add	r5, r5, #1
	cmp	r5, r2
	bcc	.L1713
.L1714:
	str	r1, [sp]
	mov	r3, r8
	ldr	r0, [sp, #36]
	ldr	r1, [sp, #40]
	ldr	r2, [sp, #44]
	bl	simple_read_from_buffer
	mov	r4, r0
	mov	r0, r8
	bl	kfree
.L1708:
	mov	r0, r4
	add	sp, sp, #52
	@ sp needed
	ldrd	r4, [sp]
	ldrd	r6, [sp, #8]
	ldrd	r8, [sp, #16]
	ldrd	r10, [sp, #24]
	add	sp, sp, #32
	ldr	pc, [sp], #4
.L1715:
	mov	r8, #16
	b	.L1709
.L1725:
	mov	r1, r2
	b	.L1714
.L1724:
	mvn	r4, #11
	b	.L1708
.L1727:
	.align	2
.L1726:
	.word	.LANCHOR1+1880
	.fnend
	.size	ghsuart_ctrl_read_stats, .-ghsuart_ctrl_read_stats
	.align	2
	.syntax unified
	.arm
	.fpu softvfp
	.type	ghsuart_data_read_stats, %function
ghsuart_data_read_stats:
	.fnstart
	@ args = 0, pretend = 0, frame = 32
	@ frame_needed = 0, uses_anonymous_args = 0
	movw	r0, #:lower16:kmalloc_caches
	strd	r4, [sp, #-36]!
	.save {r4, r5, r6, r7, r8, r9, r10, fp, lr}
	movt	r0, #:upper16:kmalloc_caches
	strd	r6, [sp, #8]
	strd	r8, [sp, #16]
	strd	r10, [sp, #24]
	str	lr, [sp, #32]
	ldr	r0, [r0, #40]
	.pad #76
	sub	sp, sp, #76
	str	r1, [sp, #60]
	strd	r2, [sp, #64]
	cmp	r0, #0
	beq	.L1736
	mov	r2, #1024
	movw	r1, #32976
	bl	kmem_cache_alloc_trace
	subs	r8, r0, #0
	beq	.L1739
.L1729:
	movw	fp, #:lower16:.LANCHOR1
	movt	fp, #:upper16:.LANCHOR1
	ldr	r3, [fp, #2048]
	cmp	r3, #0
	beq	.L1734
	ldr	r7, .L1740
	mov	r5, #0
	movw	r1, #:lower16:.LC130
	movw	r0, #:lower16:.LC131
	movt	r1, #:upper16:.LC130
	movt	r0, #:upper16:.LC131
	mov	r2, r3
	mov	r6, r5
	str	r1, [sp, #48]
	str	r0, [sp, #52]
	str	fp, [sp, #56]
.L1731:
	ldr	r4, [r7]
	mov	r3, r5
	cmp	r4, #0
	add	r9, r4, #104
	add	r10, r4, #72
	mov	r0, r9
	beq	.L1732
	bl	_raw_spin_lock_irqsave
	ldr	lr, [r4, #188]
	str	r0, [sp, #44]
	add	r0, r8, r5
	ldr	ip, [r4, #188]
	add	r7, r7, #84
	ldr	r1, [r4, #188]
	ldr	r2, [r4, #184]
	and	lr, lr, #1
	ldr	r3, [r7, #-60]
	ubfx	ip, ip, #1, #1
	ubfx	r1, r1, #2, #1
	ubfx	r2, r2, #1, #1
	str	r2, [sp, #32]
	ldr	r2, [r4, #96]
	str	r2, [sp, #28]
	ldr	fp, [r4, #212]
	ldr	r2, [sp, #48]
	str	fp, [sp, #24]
	ldr	fp, [r4, #204]
	str	r6, [sp]
	add	r6, r6, #1
	stmib	sp, {r4, lr}
	str	ip, [sp, #12]
	str	r1, [sp, #16]
	rsb	r1, r5, #1024
	str	fp, [sp, #20]
	bl	scnprintf
	add	r5, r0, r5
	ldr	r1, [sp, #44]
	mov	r0, r9
	bl	_raw_spin_unlock_irqrestore
	mov	r0, r10
	bl	_raw_spin_lock_irqsave
	ldr	ip, [r4, #184]
	rsb	r1, r5, #1024
	mov	r9, r0
	ldr	r3, [r4, #208]
	add	r0, r8, r5
	ldr	r2, [sp, #52]
	ubfx	ip, ip, #2, #1
	str	ip, [sp, #4]
	ldr	ip, [r4, #64]
	str	ip, [sp]
	bl	scnprintf
	add	r5, r5, r0
	mov	r1, r9
	mov	r0, r10
	bl	_raw_spin_unlock_irqrestore
	ldr	r3, [sp, #56]
	ldr	r2, [r3, #2048]
	mov	r3, r5
	cmp	r2, r6
	bhi	.L1731
.L1734:
	str	r3, [sp]
	ldrd	r0, [sp, #60]
	mov	r3, r8
	ldr	r2, [sp, #68]
	bl	simple_read_from_buffer
	mov	r4, r0
	mov	r0, r8
	bl	kfree
.L1728:
	mov	r0, r4
	add	sp, sp, #76
	@ sp needed
	ldrd	r4, [sp]
	ldrd	r6, [sp, #8]
	ldrd	r8, [sp, #16]
	ldrd	r10, [sp, #24]
	add	sp, sp, #32
	ldr	pc, [sp], #4
.L1732:
	add	r6, r6, #1
	add	r7, r7, #84
	cmp	r6, r2
	bcc	.L1731
	b	.L1734
.L1736:
	mov	r8, #16
	b	.L1729
.L1739:
	mvn	r4, #11
	b	.L1728
.L1741:
	.align	2
.L1740:
	.word	.LANCHOR1+2052
	.fnend
	.size	ghsuart_data_read_stats, .-ghsuart_data_read_stats
	.align	2
	.syntax unified
	.arm
	.fpu softvfp
	.type	debug_read_stats, %function
debug_read_stats:
	.fnstart
	@ args = 0, pretend = 0, frame = 0
	@ frame_needed = 0, uses_anonymous_args = 0
	strd	r4, [sp, #-36]!
	.save {r4, r5, r6, r7, r8, r9, r10, fp, lr}
	strd	r6, [sp, #8]
	movw	r6, #:lower16:.LANCHOR0
	movt	r6, #:upper16:.LANCHOR0
	strd	r8, [sp, #16]
	mov	r9, r1
	ldr	r4, [r6]
	strd	r10, [sp, #24]
	mov	r10, r2
	str	lr, [sp, #32]
	mov	fp, r3
	.pad #28
	sub	sp, sp, #28
	cmp	r6, r4
	moveq	lr, #0
	beq	.L1744
	movw	r8, #:lower16:debug_buffer
	movw	r7, #:lower16:.LC132
	sub	r4, r4, #4
	movt	r8, #:upper16:debug_buffer
	movt	r7, #:upper16:.LC132
	mov	r5, #0
.L1743:
	ldr	ip, [r4, #20]
	rsb	r1, r5, #4096
	add	r0, r8, r5
	mov	r2, r7
	mov	lr, r5
	cmp	ip, #0
	beq	.L1745
	ldr	lr, [ip, #136]
	ldr	r3, [r4]
	str	lr, [sp, #16]
	ldr	lr, [ip, #132]
	str	lr, [sp, #12]
	ldr	lr, [ip, #128]
	str	lr, [sp, #8]
	ldr	lr, [ip, #84]
	ldr	lr, [lr, #4]
	str	lr, [sp, #4]
	ldr	ip, [ip, #88]
	ldr	ip, [ip, #4]
	str	ip, [sp]
	bl	scnprintf
	ldr	r4, [r4, #4]
	add	r5, r5, r0
	mov	lr, r5
	cmp	r6, r4
	sub	r4, r4, #4
	bne	.L1743
.L1744:
	movw	r3, #:lower16:debug_buffer
	mov	r2, fp
	str	lr, [sp]
	mov	r1, r10
	mov	r0, r9
	movt	r3, #:upper16:debug_buffer
	bl	simple_read_from_buffer
	add	sp, sp, #28
	@ sp needed
	ldrd	r4, [sp]
	ldrd	r6, [sp, #8]
	ldrd	r8, [sp, #16]
	ldrd	r10, [sp, #24]
	add	sp, sp, #32
	ldr	pc, [sp], #4
.L1745:
	ldr	r4, [r4, #4]
	cmp	r6, r4
	sub	r4, r4, #4
	bne	.L1743
	b	.L1744
	.fnend
	.size	debug_read_stats, .-debug_read_stats
	.section	.exit.text,"ax",%progbits
	.align	2
	.syntax unified
	.arm
	.fpu softvfp
	.type	gether_exit, %function
gether_exit:
	.fnstart
	@ args = 0, pretend = 0, frame = 0
	@ frame_needed = 0, uses_anonymous_args = 0
	@ link register save eliminated.
	movw	r3, #:lower16:.LANCHOR1
	movt	r3, #:upper16:.LANCHOR1
	ldr	r0, [r3, #3356]
	b	destroy_workqueue
	.fnend
	.size	gether_exit, .-gether_exit
	.text
	.align	2
	.syntax unified
	.arm
	.fpu softvfp
	.type	qdss_function_cleanup, %function
qdss_function_cleanup:
	.fnstart
	@ args = 0, pretend = 0, frame = 0
	@ frame_needed = 0, uses_anonymous_args = 0
	strd	r4, [sp, #-32]!
	.save {r4, r5, r6, r7, r8, r9, r10, lr}
	strd	r6, [sp, #8]
	strd	r8, [sp, #16]
	movw	r8, #:lower16:.LANCHOR0
	movt	r8, #:upper16:.LANCHOR0
	str	r10, [sp, #24]
	ldr	r4, [r8, #268]!
	str	lr, [sp, #28]
	cmp	r4, r8
	ldr	r5, [r4]
	beq	.L1750
	ldr	r6, .L1757
	mov	r10, #256
	mov	r9, #512
	b	.L1751
.L1753:
	bl	_raw_spin_unlock_irqrestore
	cmp	r5, r8
	ldr	r3, [r5]
	beq	.L1750
.L1754:
	mov	r4, r5
	mov	r5, r3
.L1751:
	mov	r0, r6
	bl	_raw_spin_lock_irqsave
	mov	r7, r0
	ldr	r0, [r4, #80]
	bl	destroy_workqueue
	ldr	r3, [r4, #12]
	mov	r1, r7
	mov	r0, r6
	cmp	r3, #0
	bne	.L1753
	ldrd	r2, [r4]
	sub	r0, r4, #116
	str	r3, [r2, #4]
	str	r2, [r3]
	str	r10, [r4]
	str	r9, [r4, #4]
	bl	kfree
	mov	r1, r7
	mov	r0, r6
	bl	_raw_spin_unlock_irqrestore
	cmp	r5, r8
	ldr	r3, [r5]
	bne	.L1754
.L1750:
	ldrd	r4, [sp]
	ldrd	r6, [sp, #8]
	ldrd	r8, [sp, #16]
	ldr	r10, [sp, #24]
	add	sp, sp, #28
	ldr	pc, [sp], #4
.L1758:
	.align	2
.L1757:
	.word	.LANCHOR1+3360
	.fnend
	.size	qdss_function_cleanup, .-qdss_function_cleanup
	.align	2
	.syntax unified
	.arm
	.fpu softvfp
	.type	rmnet_smd_command_complete, %function
rmnet_smd_command_complete:
	.fnstart
	@ args = 0, pretend = 0, frame = 0
	@ frame_needed = 0, uses_anonymous_args = 0
	strd	r4, [sp, #-24]!
	.save {r4, r5, r6, r7, r8, lr}
	strd	r6, [sp, #8]
	str	r8, [sp, #16]
	str	lr, [sp, #20]
	ldr	r4, [r1, #32]
	ldr	r2, [r1, #44]
	ldr	r8, [r4, #84]
	cmp	r2, #0
	blt	.L1767
	add	r7, r4, #164
	mov	r6, r1
	mov	r0, r7
	bl	_raw_spin_lock
	ldr	r2, [r4, #308]
	ldr	r3, [r4, #448]
	cmp	r2, #0
	add	r3, r3, #1
	str	r3, [r4, #448]
	beq	.L1768
.L1761:
	mov	r3, r4
	ldr	r5, [r3, #108]!
	cmp	r5, r3
	beq	.L1769
	ldrd	r2, [r5]
	mov	ip, #256
	mov	r1, #512
	mov	r0, r7
	str	r3, [r2, #4]
	str	r2, [r3]
	str	ip, [r5]
	str	r1, [r5, #4]
	bl	_raw_spin_unlock
	ldr	r1, [r6]
	ldr	r2, [r6, #48]
	ldr	r0, [r5, #-8]
	bl	memcpy
	ldr	r3, [r6, #48]
	mov	r0, r7
	str	r3, [r5, #-4]
	bl	_raw_spin_lock
	ldr	r3, [r4, #128]
	add	r2, r4, #124
	mov	r0, r7
	str	r5, [r4, #128]
	strd	r2, [r5]
	str	r5, [r3]
.L1766:
	ldrd	r4, [sp]
	ldrd	r6, [sp, #8]
	ldr	r8, [sp, #16]
	ldr	lr, [sp, #20]
	add	sp, sp, #24
	b	_raw_spin_unlock
.L1768:
	ldr	r0, [r4, #260]
	bl	smd_write_avail
	ldr	r3, [r6, #48]
	cmp	r0, r3
	strcc	r3, [r4, #308]
	bcc	.L1761
	mov	r0, r7
	bl	_raw_spin_unlock
	ldr	r0, [r4, #260]
	ldr	r1, [r6]
	ldr	r2, [r6, #48]
	bl	smd_write
	ldr	r3, [r6, #48]
	cmp	r3, r0
	beq	.L1763
	ldr	r0, [r8]
	movw	r1, #:lower16:.LC134
	movt	r1, #:upper16:.LC134
	add	r0, r0, #32
	bl	dev_err
.L1763:
	mov	r0, r7
	bl	_raw_spin_lock
	ldr	r3, [r4, #452]
	mov	r0, r7
	add	r3, r3, #1
	str	r3, [r4, #452]
	b	.L1766
.L1767:
	ldr	r0, [r8]
	movw	r1, #:lower16:.LC133
	ldrd	r4, [sp]
	movt	r1, #:upper16:.LC133
	ldrd	r6, [sp, #8]
	ldr	r8, [sp, #16]
	ldr	lr, [sp, #20]
	add	r0, r0, #32
	add	sp, sp, #24
	b	dev_err
.L1769:
	mov	r0, r7
	bl	_raw_spin_unlock
	ldr	r0, [r8]
	movw	r1, #:lower16:.LC135
	ldrd	r4, [sp]
	movt	r1, #:upper16:.LC135
	ldrd	r6, [sp, #8]
	ldr	r8, [sp, #16]
	ldr	lr, [sp, #20]
	add	r0, r0, #32
	add	sp, sp, #24
	b	dev_err
	.fnend
	.size	rmnet_smd_command_complete, .-rmnet_smd_command_complete
	.align	2
	.syntax unified
	.arm
	.fpu softvfp
	.type	rmnet_smd_complete_epout, %function
rmnet_smd_complete_epout:
	.fnstart
	@ args = 0, pretend = 0, frame = 0
	@ frame_needed = 0, uses_anonymous_args = 0
	strd	r4, [sp, #-24]!
	.save {r4, r5, r6, r7, r8, lr}
	mov	r5, r1
	strd	r6, [sp, #8]
	add	r7, r1, #36
	str	r8, [sp, #16]
	str	lr, [sp, #20]
	ldr	r4, [r1, #32]
	.pad #8
	sub	sp, sp, #8
	ldr	r3, [r1, #44]
	ldr	r8, [r4, #84]
	add	r6, r4, #164
	cmn	r3, #104
	beq	.L1786
	cmp	r3, #0
	beq	.L1773
	cmn	r3, #108
	beq	.L1786
	ldr	r2, [r0, #4]
	movw	r1, #:lower16:.LC136
	ldr	r0, [r8]
	movt	r1, #:upper16:.LC136
	ldr	lr, [r5, #4]
	ldr	ip, [r5, #48]
	add	r0, r0, #32
	stm	sp, {ip, lr}
	bl	dev_err
.L1786:
	mov	r0, r6
	bl	_raw_spin_lock
	add	r2, r4, #148
	mov	r0, r6
	ldr	r3, [r4, #152]
	str	r7, [r4, #152]
.L1785:
	strd	r2, [r5, #36]
	str	r7, [r3]
	add	sp, sp, #8
	@ sp needed
	ldrd	r4, [sp]
	ldrd	r6, [sp, #8]
	ldr	r8, [sp, #16]
	ldr	lr, [sp, #20]
	add	sp, sp, #24
	b	_raw_spin_unlock
.L1773:
	mov	r0, r6
	bl	_raw_spin_lock
	ldr	r2, [r4, #372]
	ldr	r3, [r4, #432]
	cmp	r2, #0
	add	r3, r3, #1
	str	r3, [r4, #432]
	bne	.L1774
	ldr	r0, [r4, #324]
	bl	smd_write_avail
	ldr	r3, [r5, #48]
	cmp	r0, r3
	strcc	r3, [r4, #372]
	bcc	.L1774
	mov	r0, r6
	bl	_raw_spin_unlock
	ldr	r0, [r4, #324]
	ldr	r1, [r5]
	ldr	r2, [r5, #48]
	bl	smd_write
	ldr	r3, [r5, #48]
	cmp	r3, r0
	beq	.L1776
	ldr	r0, [r8]
	movw	r1, #:lower16:.LC137
	movt	r1, #:upper16:.LC137
	add	r0, r0, #32
	bl	dev_err
.L1776:
	mov	r0, r6
	bl	_raw_spin_lock
	ldr	r2, [r4, #152]
	add	r1, r4, #148
	str	r7, [r4, #152]
	ldr	r3, [r4, #436]
	mov	r0, r6
	add	r3, r3, #1
	str	r3, [r4, #436]
	str	r1, [r5, #36]
	str	r2, [r5, #40]
	str	r7, [r2]
	bl	_raw_spin_unlock
	mov	r0, r4
	add	sp, sp, #8
	@ sp needed
	ldrd	r4, [sp]
	ldrd	r6, [sp, #8]
	ldr	r8, [sp, #16]
	ldr	lr, [sp, #20]
	add	sp, sp, #24
	b	rmnet_smd_start_rx
.L1774:
	ldr	r3, [r4, #160]
	add	r2, r4, #156
	mov	r0, r6
	str	r7, [r4, #160]
	b	.L1785
	.fnend
	.size	rmnet_smd_complete_epout, .-rmnet_smd_complete_epout
	.align	2
	.syntax unified
	.arm
	.fpu softvfp
	.type	rmnet_data_rx_tlet, %function
rmnet_data_rx_tlet:
	.fnstart
	@ args = 0, pretend = 0, frame = 8
	@ frame_needed = 0, uses_anonymous_args = 0
	strd	r4, [sp, #-36]!
	.save {r4, r5, r6, r7, r8, r9, r10, fp, lr}
	mov	r5, r0
	strd	r6, [sp, #8]
	add	r6, r0, #164
	add	r7, r0, #156
	strd	r8, [sp, #16]
	strd	r10, [sp, #24]
	str	lr, [sp, #32]
	ldr	r3, [r0, #84]
	.pad #12
	sub	sp, sp, #12
	mov	r0, r6
	str	r3, [sp, #4]
	bl	_raw_spin_lock_irqsave
	ldr	r4, [r5, #156]
	mov	fp, r0
	cmp	r7, r4
	beq	.L1792
	add	r3, r5, #148
	mov	r9, #256
	mov	r8, #512
	str	r3, [sp]
	b	.L1788
.L1790:
	ldrd	r2, [r4]
	str	r3, [r2, #4]
	str	r2, [r3]
	str	r9, [r4]
	str	r8, [r4, #4]
	bl	_raw_spin_unlock_irqrestore
	ldr	r1, [r4, #-36]
	ldr	r2, [r4, #12]
	ldr	r0, [r5, #324]
	bl	smd_write
	mov	r10, r0
	mov	r0, r6
	bl	_raw_spin_lock_irqsave
	ldr	r1, [r4, #12]
	mov	fp, r0
	cmp	r1, r10
	bne	.L1795
	ldr	r1, [r5, #152]
	str	r4, [r5, #152]
	ldr	r3, [r5, #436]
	add	r3, r3, #1
	str	r3, [r5, #436]
	ldr	r3, [sp]
	str	r3, [r4]
	str	r1, [r4, #4]
	str	r4, [r1]
	ldr	r4, [r5, #156]
	cmp	r4, r7
	beq	.L1792
.L1788:
	ldr	r0, [r5, #324]
	bl	smd_write_avail
	ldr	r3, [r4, #12]
	mov	r1, fp
	cmp	r0, r3
	mov	r0, r6
	bcs	.L1790
	str	r3, [r5, #372]
.L1789:
	mov	r0, r6
	mov	r1, fp
	bl	_raw_spin_unlock_irqrestore
	mov	r0, r5
	add	sp, sp, #12
	@ sp needed
	ldrd	r4, [sp]
	ldrd	r6, [sp, #8]
	ldrd	r8, [sp, #16]
	ldrd	r10, [sp, #24]
	ldr	lr, [sp, #32]
	add	sp, sp, #36
	b	rmnet_smd_start_rx
.L1792:
	mov	r3, #0
	str	r3, [r5, #372]
	b	.L1789
.L1795:
	ldr	r3, [sp, #4]
	movw	r1, #:lower16:.LC138
	movt	r1, #:upper16:.LC138
	ldr	r0, [r3]
	add	r0, r0, #32
	bl	dev_err
	b	.L1789
	.fnend
	.size	rmnet_data_rx_tlet, .-rmnet_data_rx_tlet
	.align	2
	.syntax unified
	.arm
	.fpu softvfp
	.type	rmnet_control_rx_tlet, %function
rmnet_control_rx_tlet:
	.fnstart
	@ args = 0, pretend = 0, frame = 8
	@ frame_needed = 0, uses_anonymous_args = 0
	strd	r4, [sp, #-36]!
	.save {r4, r5, r6, r7, r8, r9, r10, fp, lr}
	mov	r5, r0
	strd	r6, [sp, #8]
	add	r6, r0, #164
	add	r7, r0, #124
	strd	r8, [sp, #16]
	strd	r10, [sp, #24]
	str	lr, [sp, #32]
	ldr	r3, [r0, #84]
	.pad #12
	sub	sp, sp, #12
	mov	r0, r6
	str	r3, [sp, #4]
	bl	_raw_spin_lock_irqsave
	ldr	r4, [r5, #124]
	mov	fp, r0
	cmp	r7, r4
	beq	.L1801
	add	r3, r5, #108
	mov	r9, #256
	mov	r8, #512
	str	r3, [sp]
	b	.L1797
.L1799:
	ldrd	r2, [r4]
	str	r3, [r2, #4]
	str	r2, [r3]
	str	r9, [r4]
	str	r8, [r4, #4]
	ldr	r3, [r5, #448]
	add	r3, r3, #1
	str	r3, [r5, #448]
	bl	_raw_spin_unlock_irqrestore
	ldmdb	r4, {r1, r2}
	ldr	r0, [r5, #260]
	bl	smd_write
	mov	r10, r0
	mov	r0, r6
	bl	_raw_spin_lock_irqsave
	ldr	r1, [r4, #-4]
	mov	fp, r0
	cmp	r1, r10
	bne	.L1804
	ldr	r1, [r5, #112]
	str	r4, [r5, #112]
	ldr	r3, [r5, #452]
	add	r3, r3, #1
	str	r3, [r5, #452]
	ldr	r3, [sp]
	str	r3, [r4]
	str	r1, [r4, #4]
	str	r4, [r1]
	ldr	r4, [r5, #124]
	cmp	r4, r7
	beq	.L1801
.L1797:
	ldr	r0, [r5, #260]
	bl	smd_write_avail
	ldr	r3, [r4, #-4]
	mov	r1, fp
	cmp	r0, r3
	mov	r0, r6
	bge	.L1799
	str	r3, [r5, #308]
.L1798:
	mov	r1, fp
	mov	r0, r6
	add	sp, sp, #12
	@ sp needed
	ldrd	r4, [sp]
	ldrd	r6, [sp, #8]
	ldrd	r8, [sp, #16]
	ldrd	r10, [sp, #24]
	ldr	lr, [sp, #32]
	add	sp, sp, #36
	b	_raw_spin_unlock_irqrestore
.L1801:
	mov	r3, #0
	str	r3, [r5, #308]
	b	.L1798
.L1804:
	ldr	r3, [sp, #4]
	movw	r1, #:lower16:.LC134
	movt	r1, #:upper16:.LC134
	ldr	r0, [r3]
	add	r0, r0, #32
	bl	dev_err
	b	.L1798
	.fnend
	.size	rmnet_control_rx_tlet, .-rmnet_control_rx_tlet
	.align	2
	.syntax unified
	.arm
	.fpu softvfp
	.type	gsmd_rx_push, %function
gsmd_rx_push:
	.fnstart
	@ args = 0, pretend = 0, frame = 8
	@ frame_needed = 0, uses_anonymous_args = 0
	strd	r4, [sp, #-36]!
	.save {r4, r5, r6, r7, r8, r9, r10, fp, lr}
	mov	r5, r0
	strd	r6, [sp, #8]
	sub	r7, r0, #24
	strd	r8, [sp, #16]
	strd	r10, [sp, #24]
	sub	r10, r0, #28
	str	lr, [sp, #32]
	ldr	r6, [r0, #44]
	.pad #20
	sub	sp, sp, #20
	mov	r0, r7
	bl	_raw_spin_lock_irq
	ldr	r0, [r6]
	cmp	r0, #0
	beq	.L1808
	ldr	r4, [r5, #-8]
	sub	r9, r5, #8
	cmp	r9, r4
	beq	.L1808
	movw	r8, #:lower16:.LC139
	mov	fp, #0
	movt	r8, #:upper16:.LC139
.L1814:
	ldr	r3, [r4, #8]
	cmn	r3, #108
	beq	.L1808
	cmp	r3, #0
	bne	.L1841
.L1809:
	bl	smd_write_avail
	cmp	r0, #0
	beq	.L1808
	ldr	r3, [r4, #12]
	cmp	r3, #0
	beq	.L1810
	ldr	r2, [r5, #-20]
	ldr	r1, [r4, #-36]
	ldr	r0, [r6]
	cmp	r2, #0
	subne	r3, r3, r2
	addne	r1, r1, r2
	mov	r2, r3
	str	r3, [sp, #12]
	bl	smd_write
	cmp	r0, #0
	ldr	r3, [sp, #12]
	blt	.L1842
	cmp	r0, r3
	bne	.L1843
	ldr	r2, [r5, #140]
	add	r3, r2, r3
	str	r3, [r5, #140]
.L1810:
	str	fp, [r5, #-20]
	ldm	r4, {r1, r2}
	mov	r3, r5
	str	r2, [r1, #4]
	str	r1, [r2]
	ldr	r2, [r3, #-16]!
	str	r4, [r2, #4]
	strd	r2, [r4]
	str	r4, [r5, #-16]
	ldr	r0, [r6]
	cmp	r0, #0
	beq	.L1808
	ldr	r4, [r5, #-8]
	cmp	r9, r4
	bne	.L1814
.L1808:
	mov	r0, r7
	bl	_raw_spin_unlock_irq
	mov	r0, r10
	add	sp, sp, #20
	@ sp needed
	ldrd	r4, [sp]
	ldrd	r6, [sp, #8]
	ldrd	r8, [sp, #16]
	ldrd	r10, [sp, #24]
	ldr	lr, [sp, #32]
	add	sp, sp, #36
	b	gsmd_start_rx
.L1843:
	ldr	r3, [r5, #-20]
	add	r2, r3, r0
	str	r2, [r5, #-20]
	b	.L1808
.L1841:
	str	r3, [sp]
	mov	r2, r10
	ldr	r1, .L1844
	mov	r0, r8
	ldr	r3, [r5, #-28]
	bl	printk
	ldr	r0, [r6]
	b	.L1809
.L1842:
	mov	r2, r0
	movw	r0, #:lower16:.LC140
	ldr	r1, .L1844
	movt	r0, #:upper16:.LC140
	bl	printk
	b	.L1808
.L1845:
	.align	2
.L1844:
	.word	.LANCHOR2+876
	.fnend
	.size	gsmd_rx_push, .-gsmd_rx_push
	.align	2
	.syntax unified
	.arm
	.fpu softvfp
	.type	grmnet_ctrl_smd_write_w, %function
grmnet_ctrl_smd_write_w:
	.fnstart
	@ args = 0, pretend = 0, frame = 0
	@ frame_needed = 0, uses_anonymous_args = 0
	strd	r4, [sp, #-36]!
	.save {r4, r5, r6, r7, r8, r9, r10, fp, lr}
	mov	r5, r0
	strd	r6, [sp, #8]
	strd	r8, [sp, #16]
	strd	r10, [sp, #24]
	str	lr, [sp, #32]
	ldr	r6, [r0, #16]
	.pad #4
	sub	sp, sp, #4
	add	r6, r6, #108
	mov	r0, r6
	bl	_raw_spin_lock_irqsave
	mov	r7, r0
	ldr	r0, [r5, #-68]
	cmp	r0, #0
	beq	.L1847
	ldr	r4, [r5, #-28]
	sub	r8, r5, #28
	cmp	r8, r4
	beq	.L1847
	mov	r10, #256
	b	.L1848
.L1856:
	ldrd	r2, [r4]
	str	r3, [r2, #4]
	str	r2, [r3]
	mov	r3, #512
	str	r10, [r4]
	str	r3, [r4, #4]
	bl	_raw_spin_unlock_irqrestore
	ldmdb	r4, {r1, r2}
	ldr	r0, [r5, #-68]
	bl	smd_write
	mov	r9, r0
	mov	r0, r6
	bl	_raw_spin_lock_irqsave
	ldr	r3, [r4, #-4]
	mov	r7, r0
	cmp	r3, r9
	bne	.L1855
	ldr	r0, [r4, #-8]
	bl	kfree
	mov	r0, fp
	bl	kfree
	ldr	r0, [r5, #-68]
	ldr	r3, [r5, #24]
	cmp	r0, #0
	add	r3, r3, #1
	str	r3, [r5, #24]
	beq	.L1847
	ldr	r4, [r5, #-28]
	cmp	r8, r4
	beq	.L1847
.L1848:
	bl	smd_write_avail
	ldr	r3, [r4, #-4]
	sub	fp, r4, #8
	mov	r1, r7
	cmp	r0, r3
	mov	r0, r6
	bge	.L1856
.L1847:
	mov	r1, r7
	mov	r0, r6
	add	sp, sp, #4
	@ sp needed
	ldrd	r4, [sp]
	ldrd	r6, [sp, #8]
	ldrd	r8, [sp, #16]
	ldrd	r10, [sp, #24]
	ldr	lr, [sp, #32]
	add	sp, sp, #36
	b	_raw_spin_unlock_irqrestore
.L1855:
	movw	r0, #:lower16:.LC141
	mov	r2, r9
	ldr	r1, .L1857
	movt	r0, #:upper16:.LC141
	bl	printk
	ldr	r0, [r4, #-8]
	bl	kfree
	mov	r0, fp
	bl	kfree
	b	.L1847
.L1858:
	.align	2
.L1857:
	.word	.LANCHOR2+892
	.fnend
	.size	grmnet_ctrl_smd_write_w, .-grmnet_ctrl_smd_write_w
	.align	2
	.syntax unified
	.arm
	.fpu softvfp
	.type	rmnet_mux_smd_data_rx_tlet, %function
rmnet_mux_smd_data_rx_tlet:
	.fnstart
	@ args = 0, pretend = 0, frame = 8
	@ frame_needed = 0, uses_anonymous_args = 0
	strd	r4, [sp, #-36]!
	.save {r4, r5, r6, r7, r8, r9, r10, fp, lr}
	mov	r5, r0
	strd	r6, [sp, #8]
	add	r6, r0, #368
	strd	r8, [sp, #16]
	strd	r10, [sp, #24]
	str	lr, [sp, #32]
	ldr	r3, [r0, #84]
	.pad #12
	sub	sp, sp, #12
	mov	r0, r6
	str	r3, [sp, #4]
	bl	_raw_spin_lock_irqsave
	ldr	r3, [r5, #372]
	mov	fp, r0
	cmp	r3, #0
	beq	.L1860
	ldr	r4, [r5, #120]
	add	r7, r5, #120
	cmp	r7, r4
	beq	.L1861
	add	r3, r5, #112
	mov	r9, #256
	mov	r8, #512
	str	r3, [sp]
	b	.L1862
.L1863:
	ldrd	r2, [r4]
	str	r3, [r2, #4]
	str	r2, [r3]
	str	r9, [r4]
	str	r8, [r4, #4]
	bl	_raw_spin_unlock_irqrestore
	ldr	r1, [r4, #-36]
	ldr	r2, [r4, #12]
	ldr	r0, [r5, #128]
	bl	smd_write
	mov	r10, r0
	mov	r0, r6
	bl	_raw_spin_lock_irqsave
	ldr	r1, [r4, #12]
	mov	fp, r0
	cmp	r1, r10
	bne	.L1871
	ldr	r1, [r5, #116]
	str	r4, [r5, #116]
	ldr	r3, [r5, #400]
	add	r3, r3, #1
	str	r3, [r5, #400]
	ldr	r3, [sp]
	str	r3, [r4]
	str	r1, [r4, #4]
	str	r4, [r1]
	ldr	r3, [r5, #372]
	cmp	r3, #0
	beq	.L1860
	ldr	r4, [r5, #120]
	cmp	r4, r7
	beq	.L1861
.L1862:
	ldr	r0, [r5, #128]
	bl	smd_write_avail
	ldr	r3, [r4, #12]
	mov	r1, fp
	cmp	r0, r3
	mov	r0, r6
	bcs	.L1863
	str	r3, [r5, #176]
.L1860:
	mov	r0, r6
	mov	r1, fp
	bl	_raw_spin_unlock_irqrestore
	mov	r0, r5
	add	sp, sp, #12
	@ sp needed
	ldrd	r4, [sp]
	ldrd	r6, [sp, #8]
	ldrd	r8, [sp, #16]
	ldrd	r10, [sp, #24]
	ldr	lr, [sp, #32]
	add	sp, sp, #36
	b	rmnet_mux_smd_start_rx
.L1861:
	mov	r3, #0
	str	r3, [r5, #176]
	b	.L1860
.L1871:
	ldr	r3, [sp, #4]
	movw	r1, #:lower16:.LC142
	movt	r1, #:upper16:.LC142
	ldr	r0, [r3]
	add	r0, r0, #32
	bl	dev_err
	b	.L1860
	.fnend
	.size	rmnet_mux_smd_data_rx_tlet, .-rmnet_mux_smd_data_rx_tlet
	.align	2
	.syntax unified
	.arm
	.fpu softvfp
	.type	rmnet_mux_smd_complete_epout, %function
rmnet_mux_smd_complete_epout:
	.fnstart
	@ args = 0, pretend = 0, frame = 0
	@ frame_needed = 0, uses_anonymous_args = 0
	strd	r4, [sp, #-28]!
	.save {r4, r5, r6, r7, r8, r9, lr}
	mov	r4, r1
	strd	r6, [sp, #8]
	strd	r8, [sp, #16]
	mov	r8, r0
	str	lr, [sp, #24]
	ldr	r5, [r1, #32]
	.pad #12
	sub	sp, sp, #12
	ldr	r3, [r5, #364]
	cmp	r3, #0
	beq	.L1890
	ldr	r3, [r1, #44]
	add	r7, r1, #36
	add	r6, r5, #368
	ldr	r9, [r5, #84]
	cmn	r3, #104
	beq	.L1889
	cmp	r3, #0
	beq	.L1876
	cmn	r3, #108
	beq	.L1889
	ldr	r2, [r0, #4]
	movw	r1, #:lower16:.LC143
	ldr	r0, [r9]
	movt	r1, #:upper16:.LC143
	ldr	lr, [r4, #4]
	ldr	ip, [r4, #48]
	add	r0, r0, #32
	stm	sp, {ip, lr}
	bl	dev_err
.L1889:
	mov	r0, r6
	bl	_raw_spin_lock
	add	r2, r5, #112
	mov	r0, r6
	ldr	r3, [r5, #116]
	str	r7, [r5, #116]
.L1888:
	strd	r2, [r4, #36]
	str	r7, [r3]
	add	sp, sp, #12
	@ sp needed
	ldrd	r4, [sp]
	ldrd	r6, [sp, #8]
	ldrd	r8, [sp, #16]
	ldr	lr, [sp, #24]
	add	sp, sp, #28
	b	_raw_spin_unlock
.L1876:
	mov	r0, r6
	bl	_raw_spin_lock
	ldr	r3, [r5, #176]
	cmp	r3, #0
	bne	.L1877
	ldr	r0, [r5, #128]
	bl	smd_write_avail
	ldr	r3, [r4, #48]
	cmp	r0, r3
	strcc	r3, [r5, #176]
	bcs	.L1891
.L1877:
	ldr	r3, [r5, #124]
	add	r2, r5, #120
	mov	r0, r6
	str	r7, [r5, #124]
	b	.L1888
.L1890:
	ldr	r0, [r1]
	bl	kfree
	ldr	r3, [r8, #8]
	mov	r1, r4
	mov	r0, r8
	ldr	r3, [r3, #12]
	add	sp, sp, #12
	@ sp needed
	ldrd	r4, [sp]
	ldrd	r6, [sp, #8]
	ldrd	r8, [sp, #16]
	ldr	lr, [sp, #24]
	add	sp, sp, #28
	bx	r3	@ indirect register sibling call
.L1891:
	mov	r0, r6
	bl	_raw_spin_unlock
	ldr	r1, [r4]
	ldr	r2, [r4, #48]
	ldr	r0, [r5, #128]
	bl	smd_write
	ldr	r3, [r4, #48]
	cmp	r3, r0
	beq	.L1879
	ldr	r0, [r9]
	movw	r1, #:lower16:.LC144
	movt	r1, #:upper16:.LC144
	add	r0, r0, #32
	bl	dev_err
.L1879:
	ldr	r3, [r5, #400]
	mov	r0, r6
	add	r3, r3, #1
	str	r3, [r5, #400]
	bl	_raw_spin_lock
	ldr	r3, [r5, #116]
	add	r2, r5, #112
	str	r7, [r5, #116]
	mov	r0, r6
	strd	r2, [r4, #36]
	str	r7, [r3]
	bl	_raw_spin_unlock
	mov	r0, r5
	add	sp, sp, #12
	@ sp needed
	ldrd	r4, [sp]
	ldrd	r6, [sp, #8]
	ldrd	r8, [sp, #16]
	ldr	lr, [sp, #24]
	add	sp, sp, #28
	b	rmnet_mux_smd_start_rx
	.fnend
	.size	rmnet_mux_smd_complete_epout, .-rmnet_mux_smd_complete_epout
	.align	2
	.syntax unified
	.arm
	.fpu softvfp
	.type	rmnet_smd_complete_epin, %function
rmnet_smd_complete_epin:
	.fnstart
	@ args = 0, pretend = 0, frame = 0
	@ frame_needed = 0, uses_anonymous_args = 0
	strd	r4, [sp, #-24]!
	.save {r4, r5, r6, r7, r8, lr}
	mov	r5, r1
	strd	r6, [sp, #8]
	add	r6, r1, #36
	str	r8, [sp, #16]
	str	lr, [sp, #20]
	ldr	r4, [r1, #32]
	ldr	r2, [r1, #44]
	add	r8, r4, #140
	add	r7, r4, #164
	cmn	r2, #104
	beq	.L1894
	cmp	r2, #0
	beq	.L1895
	cmn	r2, #108
	beq	.L1894
	ldr	r3, [r4, #84]
	movw	r1, #:lower16:.LC145
	movt	r1, #:upper16:.LC145
	ldr	r0, [r3]
	add	r0, r0, #32
	bl	dev_err
.L1895:
	mov	r0, r7
	bl	_raw_spin_lock
	ldr	r3, [r4, #140]
	cmp	r3, r8
	beq	.L1913
	ldr	r3, [r4, #144]
	str	r6, [r4, #144]
	str	r8, [r5, #36]
	str	r3, [r5, #40]
	str	r6, [r3]
	ldr	r3, [r4, #424]
	add	r3, r3, #1
	str	r3, [r4, #424]
.L1899:
	mov	r0, r7
.L1912:
	ldrd	r4, [sp]
	ldrd	r6, [sp, #8]
	ldr	r8, [sp, #16]
	ldr	lr, [sp, #20]
	add	sp, sp, #24
	b	_raw_spin_unlock
.L1913:
	ldr	r3, [r4, #144]
	str	r6, [r4, #144]
	add	r1, r4, #332
	str	r8, [r5, #36]
	mov	r0, #0
	add	r8, r4, #328
	str	r3, [r5, #40]
	str	r6, [r3]
	ldr	r3, [r4, #424]
	add	r3, r3, #1
	str	r3, [r4, #424]
	bl	_test_and_set_bit
	cmp	r0, #0
	bne	.L1899
	mov	r0, r8
	bl	__tasklet_schedule
	b	.L1899
.L1894:
	mov	r0, r7
	bl	_raw_spin_lock
	ldr	r3, [r4, #144]
	mov	r0, r7
	str	r6, [r4, #144]
	str	r8, [r5, #36]
	str	r3, [r5, #40]
	str	r6, [r3]
	b	.L1912
	.fnend
	.size	rmnet_smd_complete_epin, .-rmnet_smd_complete_epin
	.align	2
	.syntax unified
	.arm
	.fpu softvfp
	.type	rmnet_mux_smd_complete_epin, %function
rmnet_mux_smd_complete_epin:
	.fnstart
	@ args = 0, pretend = 0, frame = 0
	@ frame_needed = 0, uses_anonymous_args = 0
	strd	r4, [sp, #-24]!
	.save {r4, r5, r6, r7, r8, lr}
	mov	r5, r1
	strd	r6, [sp, #8]
	str	r8, [sp, #16]
	str	lr, [sp, #20]
	ldr	r4, [r1, #32]
	ldr	r3, [r4, #364]
	cmp	r3, #0
	beq	.L1933
	ldr	r2, [r1, #44]
	add	r6, r1, #36
	add	r8, r4, #104
	add	r7, r4, #368
	cmn	r2, #104
	beq	.L1917
	cmp	r2, #0
	beq	.L1918
	cmn	r2, #108
	beq	.L1917
	ldr	r3, [r4, #84]
	movw	r1, #:lower16:.LC146
	movt	r1, #:upper16:.LC146
	ldr	r0, [r3]
	add	r0, r0, #32
	bl	dev_err
.L1918:
	mov	r0, r7
	bl	_raw_spin_lock
	ldr	r3, [r4, #104]
	cmp	r3, r8
	ldr	r3, [r4, #108]
	str	r6, [r4, #108]
	beq	.L1919
	str	r8, [r5, #36]
	str	r3, [r5, #40]
	str	r6, [r3]
.L1920:
	mov	r0, r7
.L1932:
	ldrd	r4, [sp]
	ldrd	r6, [sp, #8]
	ldr	r8, [sp, #16]
	ldr	lr, [sp, #20]
	add	sp, sp, #24
	b	_raw_spin_unlock
.L1933:
	mov	r6, r0
	ldr	r0, [r1]
	bl	kfree
	ldr	r3, [r6, #8]
	mov	r1, r5
	mov	r0, r6
	ldrd	r4, [sp]
	ldrd	r6, [sp, #8]
	ldr	r8, [sp, #16]
	ldr	lr, [sp, #20]
	add	sp, sp, #24
	ldr	r3, [r3, #12]
	bx	r3	@ indirect register sibling call
.L1917:
	mov	r0, r7
	bl	_raw_spin_lock
	ldr	r3, [r4, #108]
	mov	r0, r7
	str	r6, [r4, #108]
	str	r8, [r5, #36]
	str	r3, [r5, #40]
	str	r6, [r3]
	b	.L1932
.L1919:
	add	r1, r4, #136
	str	r8, [r5, #36]
	mov	r0, #0
	str	r3, [r5, #40]
	add	r4, r4, #132
	str	r6, [r3]
	bl	_test_and_set_bit
	cmp	r0, #0
	bne	.L1920
	mov	r0, r4
	bl	__tasklet_schedule
	b	.L1920
	.fnend
	.size	rmnet_mux_smd_complete_epin, .-rmnet_mux_smd_complete_epin
	.align	2
	.syntax unified
	.arm
	.fpu softvfp
	.type	rmnet_smd_setup, %function
rmnet_smd_setup:
	.fnstart
	@ args = 0, pretend = 0, frame = 8
	@ frame_needed = 0, uses_anonymous_args = 0
	strd	r4, [sp, #-36]!
	.save {r4, r5, r6, r7, r8, r9, r10, fp, lr}
	strd	r6, [sp, #8]
	strd	r8, [sp, #16]
	strd	r10, [sp, #24]
	str	lr, [sp, #32]
	ldr	r2, [r0, #20]
	.pad #28
	sub	sp, sp, #28
	ldr	r3, [r0, #168]
	ldrh	r9, [r1, #2]	@ unaligned
	ldrh	r6, [r1, #6]	@ unaligned
	ldr	r8, [r2, #24]
	cmp	r3, #0
	ldr	r7, [r8, #4]
	beq	.L1945
	ldrh	r3, [r1]	@ unaligned
	movw	r2, #8482
	mov	r5, r1
	mov	r4, r0
	rev16	r3, r3
	uxth	r3, r3
	cmp	r3, r2
	beq	.L1936
	movw	r2, #41217
	cmp	r3, r2
	beq	.L1937
	cmp	r3, #8448
	beq	.L1950
.L1947:
	mvn	r6, #94
.L1934:
	mov	r0, r6
	add	sp, sp, #28
	@ sp needed
	ldrd	r4, [sp]
	ldrd	r6, [sp, #8]
	ldrd	r8, [sp, #16]
	ldrd	r10, [sp, #24]
	add	sp, sp, #32
	ldr	pc, [sp], #4
.L1937:
	cmp	r9, #0
	bne	.L1947
	ldrh	r3, [r1, #4]	@ unaligned
	add	r10, r0, #164
	mov	r0, r10
	str	r3, [sp, #20]
	bl	_raw_spin_lock
	mov	r2, r4
	ldr	fp, [r2, #132]!
	cmp	fp, r2
	beq	.L1951
	ldm	fp, {r1, r2}
	mov	lr, #256
	mov	ip, #512
	mov	r0, r10
	str	r2, [r1, #4]
	str	r1, [r2]
	str	lr, [fp]
	str	ip, [fp, #4]
	bl	_raw_spin_unlock
	ldmdb	fp, {r1, r2}
	ldr	r0, [r7]
	bl	memcpy
	mov	r0, r10
	ldr	r6, [fp, #-4]
	bl	_raw_spin_lock
	ldr	r1, [r4, #116]
	add	r2, r4, #116
	cmp	r2, r1
	beq	.L1941
	ldr	r1, [r4, #120]
	str	fp, [r4, #120]
	str	r2, [fp]
	str	r1, [fp, #4]
	str	fp, [r1]
.L1942:
	mov	r0, r10
	bl	_raw_spin_unlock
	movw	r3, #:lower16:rmnet_txcommand_complete
	str	r4, [r7, #32]
	movt	r3, #:upper16:rmnet_txcommand_complete
	str	r3, [r7, #28]
	b	.L1943
.L1950:
	movw	r3, #:lower16:rmnet_smd_command_complete
	str	r0, [r7, #32]
	movt	r3, #:upper16:rmnet_smd_command_complete
	str	r3, [r7, #28]
.L1939:
	ldrb	r3, [r7, #26]	@ zero_extendqisi2
	str	r6, [r7, #4]
	mov	r1, r7
	mov	r2, #32
	bfc	r3, #1, #1
	strb	r3, [r7, #26]
	ldr	r3, [r8]
	ldr	r0, [r3, #4]
	ldr	r3, [r0, #8]
	ldr	r3, [r3, #16]
	blx	r3
	subs	r6, r0, #0
	bge	.L1934
	ldr	r0, [r8]
	movw	r1, #:lower16:.LC59
	mov	r2, r6
	movt	r1, #:upper16:.LC59
	add	r0, r0, #32
	bl	dev_err
	b	.L1934
.L1936:
	ands	r1, r9, #1
	ldr	r0, [r0, #260]
	movne	r2, #0
	movne	r1, #2
	moveq	r2, #2
	bl	smd_tiocmset
	mov	r6, r0
.L1943:
	cmp	r6, #0
	bge	.L1939
	b	.L1934
.L1941:
	ldr	ip, [r4, #120]
	mov	r0, r9
	str	fp, [r4, #120]
	add	r1, r4, #268
	add	r5, r4, #264
	stm	fp, {r2, ip}
	str	fp, [ip]
	bl	_test_and_set_bit
	cmp	r0, #0
	bne	.L1942
	mov	r0, r5
	bl	__tasklet_schedule
	b	.L1942
.L1945:
	mvn	r6, #106
	b	.L1934
.L1951:
	ldr	r0, [r8]
	movw	r1, #:lower16:.LC103
	str	r9, [sp]
	ldr	r2, [sp, #20]
	movt	r1, #:upper16:.LC103
	ldrb	r3, [r5, #1]	@ zero_extendqisi2
	add	r0, r0, #32
	str	r2, [sp, #4]
	ldrb	r2, [r5]	@ zero_extendqisi2
	str	r6, [sp, #8]
	mvn	r6, #94
	bl	_dev_info
	mov	r0, r10
	bl	_raw_spin_unlock
	b	.L1934
	.fnend
	.size	rmnet_smd_setup, .-rmnet_smd_setup
	.align	2
	.syntax unified
	.arm
	.fpu softvfp
	.type	rmnet_smd_unbind, %function
rmnet_smd_unbind:
	.fnstart
	@ args = 0, pretend = 0, frame = 0
	@ frame_needed = 0, uses_anonymous_args = 0
	add	r0, r1, #284
	.save {r4, lr}
	str	r4, [sp, #-8]!
	mov	r4, r1
	str	lr, [sp, #4]
	bl	tasklet_kill
	add	r0, r4, #264
	bl	tasklet_kill
	add	r0, r4, #348
	bl	tasklet_kill
	add	r0, r4, #328
	bl	tasklet_kill
	ldr	r0, [r4, #388]
	bl	flush_workqueue
	mov	r0, r4
	bl	rmnet_smd_free_buf
	mov	r3, #0
	ldr	r0, [r4, #388]
	str	r3, [r4, #88]
	str	r3, [r4, #92]
	str	r3, [r4, #96]
	bl	destroy_workqueue
	movw	r3, #:lower16:.LANCHOR1
	movt	r3, #:upper16:.LANCHOR1
	ldr	r0, [r3, #3364]
	bl	debugfs_remove_recursive
	ldr	lr, [sp, #4]
	mov	r0, r4
	ldr	r4, [sp]
	add	sp, sp, #8
	b	kfree
	.fnend
	.size	rmnet_smd_unbind, .-rmnet_smd_unbind
	.section	.exit.text
	.align	2
	.syntax unified
	.arm
	.fpu softvfp
	.type	ghsuart_ctrl_exit, %function
ghsuart_ctrl_exit:
	.fnstart
	@ args = 0, pretend = 0, frame = 0
	@ frame_needed = 0, uses_anonymous_args = 0
	@ link register save eliminated.
	movw	r3, #:lower16:.LANCHOR1
	movt	r3, #:upper16:.LANCHOR1
	ldr	r0, [r3, #3368]
	b	debugfs_remove_recursive
	.fnend
	.size	ghsuart_ctrl_exit, .-ghsuart_ctrl_exit
	.align	2
	.syntax unified
	.arm
	.fpu softvfp
	.type	ghsuart_data_exit, %function
ghsuart_data_exit:
	.fnstart
	@ args = 0, pretend = 0, frame = 0
	@ frame_needed = 0, uses_anonymous_args = 0
	@ link register save eliminated.
	movw	r3, #:lower16:.LANCHOR1
	movt	r3, #:upper16:.LANCHOR1
	ldr	r0, [r3, #3372]
	b	debugfs_remove_recursive
	.fnend
	.size	ghsuart_data_exit, .-ghsuart_data_exit
	.text
	.align	2
	.syntax unified
	.arm
	.fpu softvfp
	.type	diag_function_cleanup, %function
diag_function_cleanup:
	.fnstart
	@ args = 0, pretend = 0, frame = 0
	@ frame_needed = 0, uses_anonymous_args = 0
	movw	r3, #:lower16:.LANCHOR1
	strd	r4, [sp, #-32]!
	.save {r4, r5, r6, r7, r8, r9, r10, lr}
	movt	r3, #:upper16:.LANCHOR1
	strd	r6, [sp, #8]
	strd	r8, [sp, #16]
	movw	r8, #:lower16:.LANCHOR0
	str	r10, [sp, #24]
	movt	r8, #:upper16:.LANCHOR0
	str	lr, [sp, #28]
	ldr	r0, [r3, #3376]
	bl	debugfs_remove_recursive
	ldr	r5, [r8]
	cmp	r5, r8
	ldr	r4, [r5]
	beq	.L1956
	ldr	r6, .L1963
	mov	r10, #256
	mov	r9, #512
	b	.L1957
.L1959:
	bl	_raw_spin_unlock_irqrestore
	cmp	r4, r8
	ldr	r3, [r4]
	beq	.L1956
.L1960:
	mov	r5, r4
	mov	r4, r3
.L1957:
	mov	r0, r6
	bl	_raw_spin_lock_irqsave
	ldr	r3, [r5, #12]
	mov	r7, r0
	mov	r0, r6
	mov	r1, r7
	cmp	r3, #0
	bne	.L1959
	ldrd	r2, [r5]
	sub	r0, r5, #4
	str	r3, [r2, #4]
	str	r2, [r3]
	str	r10, [r5]
	str	r9, [r5, #4]
	bl	kfree
	mov	r1, r7
	mov	r0, r6
	bl	_raw_spin_unlock_irqrestore
	cmp	r4, r8
	ldr	r3, [r4]
	bne	.L1960
.L1956:
	ldrd	r4, [sp]
	ldrd	r6, [sp, #8]
	ldrd	r8, [sp, #16]
	ldr	r10, [sp, #24]
	add	sp, sp, #28
	ldr	pc, [sp], #4
.L1964:
	.align	2
.L1963:
	.word	.LANCHOR1+3380
	.fnend
	.size	diag_function_cleanup, .-diag_function_cleanup
	.align	2
	.syntax unified
	.arm
	.fpu softvfp
	.type	rmnet_function_cleanup, %function
rmnet_function_cleanup:
	.fnstart
	@ args = 0, pretend = 0, frame = 0
	@ frame_needed = 0, uses_anonymous_args = 0
	strd	r4, [sp, #-16]!
	.save {r4, r5, r6, lr}
	movw	r4, #:lower16:.LANCHOR1
	movt	r4, #:upper16:.LANCHOR1
	str	r6, [sp, #8]
	ldr	r3, [r4, #3384]
	str	lr, [sp, #12]
	cmp	r3, #0
	beq	.L1966
	ldr	r6, .L1973
	mov	r5, #0
.L1967:
	ldr	r0, [r6, #20]
	add	r5, r5, #1
	add	r6, r6, #24
	bl	kfree
	ldr	r3, [r4, #3384]
	cmp	r5, r3
	bcc	.L1967
.L1966:
	ldr	r0, [r4, #3388]
	bl	debugfs_remove_recursive
	mov	r3, #0
	ldr	r6, [sp, #8]
	str	r3, [r4, #3384]
	str	r3, [r4, #3392]
	str	r3, [r4, #3396]
	str	r3, [r4, #3400]
	str	r3, [r4, #3404]
	str	r3, [r4, #3408]
	str	r3, [r4, #3412]
	str	r3, [r4, #3416]
	str	r3, [r4, #3420]
	ldrd	r4, [sp]
	add	sp, sp, #12
	ldr	pc, [sp], #4
.L1974:
	.align	2
.L1973:
	.word	.LANCHOR1+2536
	.fnend
	.size	rmnet_function_cleanup, .-rmnet_function_cleanup
	.align	2
	.syntax unified
	.arm
	.fpu softvfp
	.type	rmnet_data_tx_tlet, %function
rmnet_data_tx_tlet:
	.fnstart
	@ args = 0, pretend = 0, frame = 0
	@ frame_needed = 0, uses_anonymous_args = 0
	strd	r4, [sp, #-32]!
	.save {r4, r5, r6, r7, r8, r9, r10, lr}
	mov	r5, r0
	strd	r6, [sp, #8]
	add	r6, r0, #164
	add	r7, r0, #140
	strd	r8, [sp, #16]
	mov	r8, #256
	str	r10, [sp, #24]
	str	lr, [sp, #28]
	ldr	r9, [r0, #84]
	b	.L1979
.L1986:
	ldr	r0, [r5, #324]
	bl	smd_read_avail
	cmp	r0, r10
	mov	r0, r6
	blt	.L1975
	bl	_raw_spin_lock_irqsave
	ldr	r4, [r5, #140]
	mov	r3, r0
	mov	ip, #512
	mov	r0, r6
	mov	r1, r3
	cmp	r7, r4
	beq	.L1984
	ldrd	r2, [r4]
	str	r3, [r2, #4]
	str	r2, [r3]
	stm	r4, {r8, ip}
	bl	_raw_spin_unlock_irqrestore
	mov	r2, r10
	ldr	r1, [r4, #-36]
	ldr	r0, [r5, #324]
	bl	smd_read
	str	r0, [r4, #-32]
	ldr	r0, [r5, #92]
	mov	r2, #32
	sub	r1, r4, #36
	ldr	r3, [r0, #8]
	ldr	r3, [r3, #16]
	blx	r3
	subs	r2, r0, #0
	mov	r0, r6
	bne	.L1985
	bl	_raw_spin_lock_irqsave
	ldr	r3, [r5, #428]
	mov	r1, r0
	mov	r0, r6
	add	r3, r3, #1
	str	r3, [r5, #428]
	bl	_raw_spin_unlock_irqrestore
.L1979:
	ldr	r0, [r5, #324]
	bl	smd_cur_packet_size
	subs	r10, r0, #0
	bne	.L1986
.L1975:
	ldrd	r4, [sp]
	ldrd	r6, [sp, #8]
	ldrd	r8, [sp, #16]
	ldr	r10, [sp, #24]
	add	sp, sp, #28
	ldr	pc, [sp], #4
.L1985:
	ldr	r0, [r9]
	movw	r1, #:lower16:.LC147
	movt	r1, #:upper16:.LC147
	add	r0, r0, #32
	bl	dev_err
	mov	r0, r6
	bl	_raw_spin_lock_irqsave
	ldr	r3, [r5, #144]
	mov	r1, r0
	mov	r0, r6
	str	r4, [r5, #144]
	str	r7, [r4]
	str	r3, [r4, #4]
	str	r4, [r3]
.L1984:
	ldrd	r4, [sp]
	ldrd	r6, [sp, #8]
	ldrd	r8, [sp, #16]
	ldr	r10, [sp, #24]
	ldr	lr, [sp, #28]
	add	sp, sp, #32
	b	_raw_spin_unlock_irqrestore
	.fnend
	.size	rmnet_data_tx_tlet, .-rmnet_data_tx_tlet
	.align	2
	.syntax unified
	.arm
	.fpu softvfp
	.type	rmnet_control_tx_tlet, %function
rmnet_control_tx_tlet:
	.fnstart
	@ args = 0, pretend = 0, frame = 8
	@ frame_needed = 0, uses_anonymous_args = 0
	strd	r4, [sp, #-36]!
	.save {r4, r5, r6, r7, r8, r9, r10, fp, lr}
	mov	r4, r0
	strd	r6, [sp, #8]
	add	r6, r0, #164
	strd	r8, [sp, #16]
	strd	r10, [sp, #24]
	movw	r10, #:lower16:.LC2
	str	lr, [sp, #32]
	ldr	r3, [r0, #84]
	.pad #12
	sub	sp, sp, #12
	movt	r10, #:upper16:.LC2
	str	r3, [sp]
.L1992:
	add	r9, r4, #116
.L1991:
	mov	r8, #256
.L1990:
	ldr	r0, [r4, #260]
	add	r5, r4, #172
	bl	smd_cur_packet_size
	subs	r7, r0, #0
	beq	.L1987
	ldr	r0, [r4, #260]
	bl	smd_read_avail
	cmp	r0, r7
	mov	r0, r6
	blt	.L1987
	bl	_raw_spin_lock_irqsave
	ldr	fp, [r4, #116]
	mov	r2, r0
	mov	ip, #512
	mov	r0, r6
	mov	r1, r2
	cmp	fp, r9
	beq	.L1999
	ldr	lr, [fp]
	ldr	r2, [fp, #4]
	str	r2, [lr, #4]
	str	lr, [r2]
	stm	fp, {r8, ip}
	bl	_raw_spin_unlock_irqrestore
	mov	r2, r7
	ldr	r1, [fp, #-8]
	ldr	r0, [r4, #260]
	bl	smd_read
	str	r0, [fp, #-4]
	mov	r0, r6
	bl	_raw_spin_lock_irqsave
	ldr	lr, [r4, #136]
	add	r2, r4, #132
	str	fp, [r4, #136]
	ldr	ip, [r4, #444]
	mov	r1, r0
	mov	r0, r6
	add	ip, ip, #1
	str	ip, [r4, #444]
	stm	fp, {r2, lr}
	str	fp, [lr]
	bl	_raw_spin_unlock_irqrestore
	ldr	r7, [r4, #84]
	ldr	r3, [r4, #100]
	ldr	r3, [r3]
	.syntax divided
@ 61 "/home/pascua14/Desktop/s5-kernel/arch/arm/include/asm/atomic.h" 1
	dmb
@ 0 "" 2
@ 63 "/home/pascua14/Desktop/s5-kernel/arch/arm/include/asm/atomic.h" 1
	@ atomic_add_return
1:	ldrex	r2, [r5]
	add	r2, r2, #1
	strex	r1, r2, [r5]
	teq	r1, #0
	bne	1b
@ 0 "" 2
@ 73 "/home/pascua14/Desktop/s5-kernel/arch/arm/include/asm/atomic.h" 1
	dmb
@ 0 "" 2
	.arm
	.syntax unified
	cmp	r2, #1
	bne	.L1990
	mov	r1, #0
	mvn	r0, #94
	strb	r0, [r3]
	strb	r2, [r3, #1]
	mov	r2, #32
	strb	r1, [r3, #2]
	strb	r1, [r3, #3]
	ldrb	r0, [r4, #104]	@ zero_extendqisi2
	strh	r0, [r3, #4]	@ unaligned
	strb	r1, [r3, #6]
	strb	r1, [r3, #7]
	ldrd	r0, [r4, #96]
	ldr	r3, [r0, #8]
	ldr	r3, [r3, #16]
	blx	r3
	subs	r2, r0, #0
	bge	.L1991
	.syntax divided
@ 83 "/home/pascua14/Desktop/s5-kernel/arch/arm/include/asm/atomic.h" 1
	@ atomic_sub
1:	ldrex	r3, [r5]
	sub	r3, r3, #1
	strex	r1, r3, [r5]
	teq	r1, #0
	bne	1b
@ 0 "" 2
	.arm
	.syntax unified
	ldr	r0, [r7]
	mov	r1, r10
	add	r0, r0, #32
	bl	dev_err
	b	.L1992
.L1987:
	add	sp, sp, #12
	@ sp needed
	ldrd	r4, [sp]
	ldrd	r6, [sp, #8]
	ldrd	r8, [sp, #16]
	ldrd	r10, [sp, #24]
	add	sp, sp, #32
	ldr	pc, [sp], #4
.L1999:
	ldr	r3, [sp]
	movw	r1, #:lower16:.LC148
	str	r2, [sp, #4]
	movt	r1, #:upper16:.LC148
	ldr	r0, [r3]
	add	r0, r0, #32
	bl	dev_err
	ldr	r2, [sp, #4]
	mov	r0, r6
	mov	r1, r2
	add	sp, sp, #12
	@ sp needed
	ldrd	r4, [sp]
	ldrd	r6, [sp, #8]
	ldrd	r8, [sp, #16]
	ldrd	r10, [sp, #24]
	ldr	lr, [sp, #32]
	add	sp, sp, #36
	b	_raw_spin_unlock_irqrestore
	.fnend
	.size	rmnet_control_tx_tlet, .-rmnet_control_tx_tlet
	.align	2
	.syntax unified
	.arm
	.fpu softvfp
	.type	gsmd_tx_pull, %function
gsmd_tx_pull:
	.fnstart
	@ args = 0, pretend = 0, frame = 8
	@ frame_needed = 0, uses_anonymous_args = 0
	strd	r4, [sp, #-36]!
	.save {r4, r5, r6, r7, r8, r9, r10, fp, lr}
	sub	r3, r0, #52
	mov	r5, r0
	strd	r6, [sp, #8]
	sub	r6, r0, #48
	strd	r8, [sp, #16]
	strd	r10, [sp, #24]
	str	lr, [sp, #32]
	.pad #20
	sub	sp, sp, #20
	ldr	r7, [r0, #20]
	mov	r0, r6
	str	r3, [sp, #12]
	bl	_raw_spin_lock_irq
	ldr	r3, [r5, #16]
	cmp	r3, #0
	beq	.L2031
	ldr	r0, [r7]
	sub	r10, r5, #8
	ldr	r8, [r3, #88]
	cmp	r0, #0
	beq	.L2010
	ldr	r3, [r5, #-8]
	cmp	r3, r10
	bne	.L2015
	b	.L2010
.L2033:
	ldr	r4, [r5, #-8]
	cmp	r0, #2048
	movlt	r2, r0
	movge	r2, #2048
	ldm	r4, {r1, r3}
	sub	r9, r4, #36
	str	r3, [r1, #4]
	str	r1, [r3]
	mov	r3, #256
	ldr	r1, [r4, #-36]
	str	r3, [r4]
	mov	r3, #512
	str	r3, [r4, #4]
	ldr	r0, [r7]
	bl	smd_read
	str	r0, [r4, #-32]
	mov	r0, r6
	bl	_raw_spin_unlock_irq
	ldr	r3, [r8, #8]
	mov	r1, r9
	mov	r2, #208
	mov	r0, r8
	ldr	r3, [r3, #16]
	blx	r3
	mov	fp, r0
	mov	r0, r6
	bl	_raw_spin_lock_irq
	cmp	fp, #0
	bne	.L2032
	ldr	r2, [r4, #-32]
	ldr	r3, [r5, #120]
	add	r3, r3, r2
	str	r3, [r5, #120]
	ldr	r0, [r7]
	cmp	r0, #0
	beq	.L2014
	ldr	r3, [r5, #-8]
	cmp	r10, r3
	beq	.L2014
.L2015:
	bl	smd_read_avail
	cmp	r0, #0
	bne	.L2033
.L2014:
	ldr	r3, [r5, #16]
	cmp	r3, #0
	bne	.L2010
.L2016:
	mov	r0, r6
	add	sp, sp, #20
	@ sp needed
	ldrd	r4, [sp]
	ldrd	r6, [sp, #8]
	ldrd	r8, [sp, #16]
	ldrd	r10, [sp, #24]
	ldr	lr, [sp, #32]
	add	sp, sp, #36
	b	_raw_spin_unlock_irq
.L2010:
	ldr	r3, [r5, #20]
	ldr	r0, [r3]
	bl	smd_read_avail
	cmp	r0, #0
	beq	.L2016
	ldr	r3, [r5, #-8]
	cmp	r10, r3
	beq	.L2016
	movw	r3, #:lower16:.LANCHOR1
	mov	r2, r5
	movt	r3, #:upper16:.LANCHOR1
	mov	r0, #4
	ldr	r1, [r3, #3344]
	bl	queue_work_on
	b	.L2016
.L2031:
	mov	r0, r6
	bl	_raw_spin_unlock_irq
	sub	r3, r5, #52
	cmp	r3, #0
	beq	.L2000
	ldr	r3, [r5, #20]
	ldr	r0, [r3]
	cmp	r0, #0
	bne	.L2005
	b	.L2000
.L2006:
	ldr	r3, [r5, #20]
	ldr	r0, [r3]
	bl	smd_read
	ldr	r3, [r5, #20]
	ldr	r0, [r3]
.L2005:
	bl	smd_read_avail
	subs	r2, r0, #0
	mov	r1, #0
	bne	.L2006
.L2000:
	add	sp, sp, #20
	@ sp needed
	ldrd	r4, [sp]
	ldrd	r6, [sp, #8]
	ldrd	r8, [sp, #16]
	ldrd	r10, [sp, #24]
	add	sp, sp, #32
	ldr	pc, [sp], #4
.L2032:
	movw	r0, #:lower16:.LC149
	ldr	r3, [r5, #-52]
	str	fp, [sp]
	movt	r0, #:upper16:.LC149
	ldr	r1, .L2035
	ldr	r2, [sp, #12]
	bl	printk
	ldr	r3, [r5, #16]
	cmp	r3, #0
	beq	.L2034
	ldr	r3, [r5, #-8]
	str	r4, [r3, #4]
	stm	r4, {r3, r10}
	str	r4, [r5, #-8]
	b	.L2014
.L2034:
	ldr	r0, [r4, #-36]
	bl	kfree
	ldr	r3, [r8, #8]
	mov	r1, r9
	mov	r0, r8
	ldr	r3, [r3, #12]
	blx	r3
	b	.L2014
.L2036:
	.align	2
.L2035:
	.word	.LANCHOR2+916
	.fnend
	.size	gsmd_tx_pull, .-gsmd_tx_pull
	.align	2
	.syntax unified
	.arm
	.fpu softvfp
	.type	rmnet_mux_smd_data_tx_tlet, %function
rmnet_mux_smd_data_tx_tlet:
	.fnstart
	@ args = 0, pretend = 0, frame = 0
	@ frame_needed = 0, uses_anonymous_args = 0
	strd	r4, [sp, #-32]!
	.save {r4, r5, r6, r7, r8, r9, r10, lr}
	strd	r6, [sp, #8]
	strd	r8, [sp, #16]
	str	r10, [sp, #24]
	str	lr, [sp, #28]
	ldr	r9, [r0, #84]
	ldr	r3, [r0, #372]
	cmp	r3, #0
	beq	.L2037
	mov	r4, r0
	add	r6, r0, #368
	add	r7, r0, #104
	mov	r8, #256
	b	.L2041
.L2052:
	ldr	r0, [r4, #128]
	bl	smd_read_avail
